(lp0
S'train/ILSVRC2015_VID_train_0000/ILSVRC2015_train_00092019/'
p1
aS'train/ILSVRC2015_VID_train_0000/ILSVRC2015_train_00010037/'
p2
aS'train/ILSVRC2015_VID_train_0000/ILSVRC2015_train_00047006/'
p3
aS'train/ILSVRC2015_VID_train_0000/ILSVRC2015_train_00102023/'
p4
aS'train/ILSVRC2015_VID_train_0000/ILSVRC2015_train_00102022/'
p5
aS'train/ILSVRC2015_VID_train_0000/ILSVRC2015_train_00040006/'
p6
aS'train/ILSVRC2015_VID_train_0000/ILSVRC2015_train_00119043/'
p7
aS'train/ILSVRC2015_VID_train_0000/ILSVRC2015_train_00016012/'
p8
aS'train/ILSVRC2015_VID_train_0000/ILSVRC2015_train_00005017/'
p9
aS'train/ILSVRC2015_VID_train_0000/ILSVRC2015_train_00010019/'
p10
aS'train/ILSVRC2015_VID_train_0000/ILSVRC2015_train_00119040/'
p11
aS'train/ILSVRC2015_VID_train_0000/ILSVRC2015_train_00124007/'
p12
aS'train/ILSVRC2015_VID_train_0000/ILSVRC2015_train_00119037/'
p13
aS'train/ILSVRC2015_VID_train_0000/ILSVRC2015_train_00034007/'
p14
aS'train/ILSVRC2015_VID_train_0000/ILSVRC2015_train_00051010/'
p15
aS'train/ILSVRC2015_VID_train_0000/ILSVRC2015_train_00051028/'
p16
aS'train/ILSVRC2015_VID_train_0000/ILSVRC2015_train_00117010/'
p17
aS'train/ILSVRC2015_VID_train_0000/ILSVRC2015_train_00092010/'
p18
aS'train/ILSVRC2015_VID_train_0000/ILSVRC2015_train_00125011/'
p19
aS'train/ILSVRC2015_VID_train_0000/ILSVRC2015_train_00102016/'
p20
aS'train/ILSVRC2015_VID_train_0000/ILSVRC2015_train_00056004/'
p21
aS'train/ILSVRC2015_VID_train_0000/ILSVRC2015_train_00119006/'
p22
aS'train/ILSVRC2015_VID_train_0000/ILSVRC2015_train_00038000/'
p23
aS'train/ILSVRC2015_VID_train_0000/ILSVRC2015_train_00073031/'
p24
aS'train/ILSVRC2015_VID_train_0000/ILSVRC2015_train_00025038/'
p25
aS'train/ILSVRC2015_VID_train_0000/ILSVRC2015_train_00025031/'
p26
aS'train/ILSVRC2015_VID_train_0000/ILSVRC2015_train_00124013/'
p27
aS'train/ILSVRC2015_VID_train_0000/ILSVRC2015_train_00117021/'
p28
aS'train/ILSVRC2015_VID_train_0000/ILSVRC2015_train_00102017/'
p29
aS'train/ILSVRC2015_VID_train_0000/ILSVRC2015_train_00102000/'
p30
aS'train/ILSVRC2015_VID_train_0000/ILSVRC2015_train_00034012/'
p31
aS'train/ILSVRC2015_VID_train_0000/ILSVRC2015_train_00025016/'
p32
aS'train/ILSVRC2015_VID_train_0000/ILSVRC2015_train_00047005/'
p33
aS'train/ILSVRC2015_VID_train_0000/ILSVRC2015_train_00125014/'
p34
aS'train/ILSVRC2015_VID_train_0000/ILSVRC2015_train_00025020/'
p35
aS'train/ILSVRC2015_VID_train_0000/ILSVRC2015_train_00053005/'
p36
aS'train/ILSVRC2015_VID_train_0000/ILSVRC2015_train_00051021/'
p37
aS'train/ILSVRC2015_VID_train_0000/ILSVRC2015_train_00073002/'
p38
aS'train/ILSVRC2015_VID_train_0000/ILSVRC2015_train_00124001/'
p39
aS'train/ILSVRC2015_VID_train_0000/ILSVRC2015_train_00040020/'
p40
aS'train/ILSVRC2015_VID_train_0000/ILSVRC2015_train_00117016/'
p41
aS'train/ILSVRC2015_VID_train_0000/ILSVRC2015_train_00102019/'
p42
aS'train/ILSVRC2015_VID_train_0000/ILSVRC2015_train_00119039/'
p43
aS'train/ILSVRC2015_VID_train_0000/ILSVRC2015_train_00051015/'
p44
aS'train/ILSVRC2015_VID_train_0000/ILSVRC2015_train_00119025/'
p45
aS'train/ILSVRC2015_VID_train_0000/ILSVRC2015_train_00117029/'
p46
aS'train/ILSVRC2015_VID_train_0000/ILSVRC2015_train_00073027/'
p47
aS'train/ILSVRC2015_VID_train_0000/ILSVRC2015_train_00068010/'
p48
aS'train/ILSVRC2015_VID_train_0000/ILSVRC2015_train_00040017/'
p49
aS'train/ILSVRC2015_VID_train_0000/ILSVRC2015_train_00016003/'
p50
aS'train/ILSVRC2015_VID_train_0000/ILSVRC2015_train_00040012/'
p51
aS'train/ILSVRC2015_VID_train_0000/ILSVRC2015_train_00010025/'
p52
aS'train/ILSVRC2015_VID_train_0000/ILSVRC2015_train_00053002/'
p53
aS'train/ILSVRC2015_VID_train_0000/ILSVRC2015_train_00117036/'
p54
aS'train/ILSVRC2015_VID_train_0000/ILSVRC2015_train_00092006/'
p55
aS'train/ILSVRC2015_VID_train_0000/ILSVRC2015_train_00071007/'
p56
aS'train/ILSVRC2015_VID_train_0000/ILSVRC2015_train_00010023/'
p57
aS'train/ILSVRC2015_VID_train_0000/ILSVRC2015_train_00092029/'
p58
aS'train/ILSVRC2015_VID_train_0000/ILSVRC2015_train_00051017/'
p59
aS'train/ILSVRC2015_VID_train_0000/ILSVRC2015_train_00138005/'
p60
aS'train/ILSVRC2015_VID_train_0000/ILSVRC2015_train_00050002/'
p61
aS'train/ILSVRC2015_VID_train_0000/ILSVRC2015_train_00119032/'
p62
aS'train/ILSVRC2015_VID_train_0000/ILSVRC2015_train_00047010/'
p63
aS'train/ILSVRC2015_VID_train_0000/ILSVRC2015_train_00119031/'
p64
aS'train/ILSVRC2015_VID_train_0000/ILSVRC2015_train_00051025/'
p65
aS'train/ILSVRC2015_VID_train_0000/ILSVRC2015_train_00073032/'
p66
aS'train/ILSVRC2015_VID_train_0000/ILSVRC2015_train_00053000/'
p67
aS'train/ILSVRC2015_VID_train_0000/ILSVRC2015_train_00139000/'
p68
aS'train/ILSVRC2015_VID_train_0000/ILSVRC2015_train_00034006/'
p69
aS'train/ILSVRC2015_VID_train_0000/ILSVRC2015_train_00056000/'
p70
aS'train/ILSVRC2015_VID_train_0000/ILSVRC2015_train_00138006/'
p71
aS'train/ILSVRC2015_VID_train_0000/ILSVRC2015_train_00117031/'
p72
aS'train/ILSVRC2015_VID_train_0000/ILSVRC2015_train_00034010/'
p73
aS'train/ILSVRC2015_VID_train_0000/ILSVRC2015_train_00117003/'
p74
aS'train/ILSVRC2015_VID_train_0000/ILSVRC2015_train_00010000/'
p75
aS'train/ILSVRC2015_VID_train_0000/ILSVRC2015_train_00040018/'
p76
aS'train/ILSVRC2015_VID_train_0000/ILSVRC2015_train_00056005/'
p77
aS'train/ILSVRC2015_VID_train_0000/ILSVRC2015_train_00102013/'
p78
aS'train/ILSVRC2015_VID_train_0000/ILSVRC2015_train_00053012/'
p79
aS'train/ILSVRC2015_VID_train_0000/ILSVRC2015_train_00068000/'
p80
aS'train/ILSVRC2015_VID_train_0000/ILSVRC2015_train_00005010/'
p81
aS'train/ILSVRC2015_VID_train_0000/ILSVRC2015_train_00034023/'
p82
aS'train/ILSVRC2015_VID_train_0000/ILSVRC2015_train_00073034/'
p83
aS'train/ILSVRC2015_VID_train_0000/ILSVRC2015_train_00056008/'
p84
aS'train/ILSVRC2015_VID_train_0000/ILSVRC2015_train_00064001/'
p85
aS'train/ILSVRC2015_VID_train_0000/ILSVRC2015_train_00092035/'
p86
aS'train/ILSVRC2015_VID_train_0000/ILSVRC2015_train_00071005/'
p87
aS'train/ILSVRC2015_VID_train_0000/ILSVRC2015_train_00060006/'
p88
aS'train/ILSVRC2015_VID_train_0000/ILSVRC2015_train_00040025/'
p89
aS'train/ILSVRC2015_VID_train_0000/ILSVRC2015_train_00117009/'
p90
aS'train/ILSVRC2015_VID_train_0000/ILSVRC2015_train_00018000/'
p91
aS'train/ILSVRC2015_VID_train_0000/ILSVRC2015_train_00071015/'
p92
aS'train/ILSVRC2015_VID_train_0000/ILSVRC2015_train_00051008/'
p93
aS'train/ILSVRC2015_VID_train_0000/ILSVRC2015_train_00047002/'
p94
aS'train/ILSVRC2015_VID_train_0000/ILSVRC2015_train_00138016/'
p95
aS'train/ILSVRC2015_VID_train_0000/ILSVRC2015_train_00119035/'
p96
aS'train/ILSVRC2015_VID_train_0000/ILSVRC2015_train_00073036/'
p97
aS'train/ILSVRC2015_VID_train_0000/ILSVRC2015_train_00102025/'
p98
aS'train/ILSVRC2015_VID_train_0000/ILSVRC2015_train_00119038/'
p99
aS'train/ILSVRC2015_VID_train_0000/ILSVRC2015_train_00053006/'
p100
aS'train/ILSVRC2015_VID_train_0000/ILSVRC2015_train_00119020/'
p101
aS'train/ILSVRC2015_VID_train_0000/ILSVRC2015_train_00025028/'
p102
aS'train/ILSVRC2015_VID_train_0000/ILSVRC2015_train_00073000/'
p103
aS'train/ILSVRC2015_VID_train_0000/ILSVRC2015_train_00040002/'
p104
aS'train/ILSVRC2015_VID_train_0000/ILSVRC2015_train_00012006/'
p105
aS'train/ILSVRC2015_VID_train_0000/ILSVRC2015_train_00016007/'
p106
aS'train/ILSVRC2015_VID_train_0000/ILSVRC2015_train_00124010/'
p107
aS'train/ILSVRC2015_VID_train_0000/ILSVRC2015_train_00025019/'
p108
aS'train/ILSVRC2015_VID_train_0000/ILSVRC2015_train_00012010/'
p109
aS'train/ILSVRC2015_VID_train_0000/ILSVRC2015_train_00125009/'
p110
aS'train/ILSVRC2015_VID_train_0000/ILSVRC2015_train_00060009/'
p111
aS'train/ILSVRC2015_VID_train_0000/ILSVRC2015_train_00025039/'
p112
aS'train/ILSVRC2015_VID_train_0000/ILSVRC2015_train_00034001/'
p113
aS'train/ILSVRC2015_VID_train_0000/ILSVRC2015_train_00051003/'
p114
aS'train/ILSVRC2015_VID_train_0000/ILSVRC2015_train_00073025/'
p115
aS'train/ILSVRC2015_VID_train_0000/ILSVRC2015_train_00098001/'
p116
aS'train/ILSVRC2015_VID_train_0000/ILSVRC2015_train_00060011/'
p117
aS'train/ILSVRC2015_VID_train_0000/ILSVRC2015_train_00060001/'
p118
aS'train/ILSVRC2015_VID_train_0000/ILSVRC2015_train_00010013/'
p119
aS'train/ILSVRC2015_VID_train_0000/ILSVRC2015_train_00073019/'
p120
aS'train/ILSVRC2015_VID_train_0000/ILSVRC2015_train_00039001/'
p121
aS'train/ILSVRC2015_VID_train_0000/ILSVRC2015_train_00012004/'
p122
aS'train/ILSVRC2015_VID_train_0000/ILSVRC2015_train_00119001/'
p123
aS'train/ILSVRC2015_VID_train_0000/ILSVRC2015_train_00125010/'
p124
aS'train/ILSVRC2015_VID_train_0000/ILSVRC2015_train_00102021/'
p125
aS'train/ILSVRC2015_VID_train_0000/ILSVRC2015_train_00025040/'
p126
aS'train/ILSVRC2015_VID_train_0000/ILSVRC2015_train_00005007/'
p127
aS'train/ILSVRC2015_VID_train_0000/ILSVRC2015_train_00117005/'
p128
aS'train/ILSVRC2015_VID_train_0000/ILSVRC2015_train_00138011/'
p129
aS'train/ILSVRC2015_VID_train_0000/ILSVRC2015_train_00051011/'
p130
aS'train/ILSVRC2015_VID_train_0000/ILSVRC2015_train_00020000/'
p131
aS'train/ILSVRC2015_VID_train_0000/ILSVRC2015_train_00117008/'
p132
aS'train/ILSVRC2015_VID_train_0000/ILSVRC2015_train_00092004/'
p133
aS'train/ILSVRC2015_VID_train_0000/ILSVRC2015_train_00092000/'
p134
aS'train/ILSVRC2015_VID_train_0000/ILSVRC2015_train_00138017/'
p135
aS'train/ILSVRC2015_VID_train_0000/ILSVRC2015_train_00139003/'
p136
aS'train/ILSVRC2015_VID_train_0000/ILSVRC2015_train_00034003/'
p137
aS'train/ILSVRC2015_VID_train_0000/ILSVRC2015_train_00025012/'
p138
aS'train/ILSVRC2015_VID_train_0000/ILSVRC2015_train_00025041/'
p139
aS'train/ILSVRC2015_VID_train_0000/ILSVRC2015_train_00068004/'
p140
aS'train/ILSVRC2015_VID_train_0000/ILSVRC2015_train_00040001/'
p141
aS'train/ILSVRC2015_VID_train_0000/ILSVRC2015_train_00075001/'
p142
aS'train/ILSVRC2015_VID_train_0000/ILSVRC2015_train_00117014/'
p143
aS'train/ILSVRC2015_VID_train_0000/ILSVRC2015_train_00034008/'
p144
aS'train/ILSVRC2015_VID_train_0000/ILSVRC2015_train_00018002/'
p145
aS'train/ILSVRC2015_VID_train_0000/ILSVRC2015_train_00005001/'
p146
aS'train/ILSVRC2015_VID_train_0000/ILSVRC2015_train_00010036/'
p147
aS'train/ILSVRC2015_VID_train_0000/ILSVRC2015_train_00119026/'
p148
aS'train/ILSVRC2015_VID_train_0000/ILSVRC2015_train_00102029/'
p149
aS'train/ILSVRC2015_VID_train_0000/ILSVRC2015_train_00115001/'
p150
aS'train/ILSVRC2015_VID_train_0000/ILSVRC2015_train_00102012/'
p151
aS'train/ILSVRC2015_VID_train_0000/ILSVRC2015_train_00102032/'
p152
aS'train/ILSVRC2015_VID_train_0000/ILSVRC2015_train_00119036/'
p153
aS'train/ILSVRC2015_VID_train_0000/ILSVRC2015_train_00073023/'
p154
aS'train/ILSVRC2015_VID_train_0000/ILSVRC2015_train_00117033/'
p155
aS'train/ILSVRC2015_VID_train_0000/ILSVRC2015_train_00008007/'
p156
aS'train/ILSVRC2015_VID_train_0000/ILSVRC2015_train_00073033/'
p157
aS'train/ILSVRC2015_VID_train_0000/ILSVRC2015_train_00051032/'
p158
aS'train/ILSVRC2015_VID_train_0000/ILSVRC2015_train_00010038/'
p159
aS'train/ILSVRC2015_VID_train_0000/ILSVRC2015_train_00119009/'
p160
aS'train/ILSVRC2015_VID_train_0000/ILSVRC2015_train_00051016/'
p161
aS'train/ILSVRC2015_VID_train_0000/ILSVRC2015_train_00124005/'
p162
aS'train/ILSVRC2015_VID_train_0000/ILSVRC2015_train_00030004/'
p163
aS'train/ILSVRC2015_VID_train_0000/ILSVRC2015_train_00117011/'
p164
aS'train/ILSVRC2015_VID_train_0000/ILSVRC2015_train_00040028/'
p165
aS'train/ILSVRC2015_VID_train_0000/ILSVRC2015_train_00115003/'
p166
aS'train/ILSVRC2015_VID_train_0000/ILSVRC2015_train_00071004/'
p167
aS'train/ILSVRC2015_VID_train_0000/ILSVRC2015_train_00092037/'
p168
aS'train/ILSVRC2015_VID_train_0000/ILSVRC2015_train_00025021/'
p169
aS'train/ILSVRC2015_VID_train_0000/ILSVRC2015_train_00092039/'
p170
aS'train/ILSVRC2015_VID_train_0000/ILSVRC2015_train_00102011/'
p171
aS'train/ILSVRC2015_VID_train_0000/ILSVRC2015_train_00092025/'
p172
aS'train/ILSVRC2015_VID_train_0000/ILSVRC2015_train_00040029/'
p173
aS'train/ILSVRC2015_VID_train_0000/ILSVRC2015_train_00068002/'
p174
aS'train/ILSVRC2015_VID_train_0000/ILSVRC2015_train_00119007/'
p175
aS'train/ILSVRC2015_VID_train_0000/ILSVRC2015_train_00071018/'
p176
aS'train/ILSVRC2015_VID_train_0000/ILSVRC2015_train_00068014/'
p177
aS'train/ILSVRC2015_VID_train_0000/ILSVRC2015_train_00124012/'
p178
aS'train/ILSVRC2015_VID_train_0000/ILSVRC2015_train_00010018/'
p179
aS'train/ILSVRC2015_VID_train_0000/ILSVRC2015_train_00115000/'
p180
aS'train/ILSVRC2015_VID_train_0000/ILSVRC2015_train_00047024/'
p181
aS'train/ILSVRC2015_VID_train_0000/ILSVRC2015_train_00005006/'
p182
aS'train/ILSVRC2015_VID_train_0000/ILSVRC2015_train_00018003/'
p183
aS'train/ILSVRC2015_VID_train_0000/ILSVRC2015_train_00098006/'
p184
aS'train/ILSVRC2015_VID_train_0000/ILSVRC2015_train_00018001/'
p185
aS'train/ILSVRC2015_VID_train_0000/ILSVRC2015_train_00040019/'
p186
aS'train/ILSVRC2015_VID_train_0000/ILSVRC2015_train_00010021/'
p187
aS'train/ILSVRC2015_VID_train_0000/ILSVRC2015_train_00102014/'
p188
aS'train/ILSVRC2015_VID_train_0000/ILSVRC2015_train_00016001/'
p189
aS'train/ILSVRC2015_VID_train_0000/ILSVRC2015_train_00025013/'
p190
aS'train/ILSVRC2015_VID_train_0000/ILSVRC2015_train_00025010/'
p191
aS'train/ILSVRC2015_VID_train_0000/ILSVRC2015_train_00010024/'
p192
aS'train/ILSVRC2015_VID_train_0000/ILSVRC2015_train_00119041/'
p193
aS'train/ILSVRC2015_VID_train_0000/ILSVRC2015_train_00040027/'
p194
aS'train/ILSVRC2015_VID_train_0000/ILSVRC2015_train_00034002/'
p195
aS'train/ILSVRC2015_VID_train_0000/ILSVRC2015_train_00124011/'
p196
aS'train/ILSVRC2015_VID_train_0000/ILSVRC2015_train_00040003/'
p197
aS'train/ILSVRC2015_VID_train_0000/ILSVRC2015_train_00117022/'
p198
aS'train/ILSVRC2015_VID_train_0000/ILSVRC2015_train_00098003/'
p199
aS'train/ILSVRC2015_VID_train_0000/ILSVRC2015_train_00025006/'
p200
aS'train/ILSVRC2015_VID_train_0000/ILSVRC2015_train_00073010/'
p201
aS'train/ILSVRC2015_VID_train_0000/ILSVRC2015_train_00102033/'
p202
aS'train/ILSVRC2015_VID_train_0000/ILSVRC2015_train_00117012/'
p203
aS'train/ILSVRC2015_VID_train_0000/ILSVRC2015_train_00092017/'
p204
aS'train/ILSVRC2015_VID_train_0000/ILSVRC2015_train_00008001/'
p205
aS'train/ILSVRC2015_VID_train_0000/ILSVRC2015_train_00008005/'
p206
aS'train/ILSVRC2015_VID_train_0000/ILSVRC2015_train_00010033/'
p207
aS'train/ILSVRC2015_VID_train_0000/ILSVRC2015_train_00053008/'
p208
aS'train/ILSVRC2015_VID_train_0000/ILSVRC2015_train_00073014/'
p209
aS'train/ILSVRC2015_VID_train_0000/ILSVRC2015_train_00040004/'
p210
aS'train/ILSVRC2015_VID_train_0000/ILSVRC2015_train_00047004/'
p211
aS'train/ILSVRC2015_VID_train_0000/ILSVRC2015_train_00119029/'
p212
aS'train/ILSVRC2015_VID_train_0000/ILSVRC2015_train_00010006/'
p213
aS'train/ILSVRC2015_VID_train_0000/ILSVRC2015_train_00025000/'
p214
aS'train/ILSVRC2015_VID_train_0000/ILSVRC2015_train_00025008/'
p215
aS'train/ILSVRC2015_VID_train_0000/ILSVRC2015_train_00034020/'
p216
aS'train/ILSVRC2015_VID_train_0000/ILSVRC2015_train_00138013/'
p217
aS'train/ILSVRC2015_VID_train_0000/ILSVRC2015_train_00102007/'
p218
aS'train/ILSVRC2015_VID_train_0000/ILSVRC2015_train_00092003/'
p219
aS'train/ILSVRC2015_VID_train_0000/ILSVRC2015_train_00050000/'
p220
aS'train/ILSVRC2015_VID_train_0000/ILSVRC2015_train_00086000/'
p221
aS'train/ILSVRC2015_VID_train_0000/ILSVRC2015_train_00071011/'
p222
aS'train/ILSVRC2015_VID_train_0000/ILSVRC2015_train_00040014/'
p223
aS'train/ILSVRC2015_VID_train_0000/ILSVRC2015_train_00051000/'
p224
aS'train/ILSVRC2015_VID_train_0000/ILSVRC2015_train_00047012/'
p225
aS'train/ILSVRC2015_VID_train_0000/ILSVRC2015_train_00025001/'
p226
aS'train/ILSVRC2015_VID_train_0000/ILSVRC2015_train_00039000/'
p227
aS'train/ILSVRC2015_VID_train_0000/ILSVRC2015_train_00025025/'
p228
aS'train/ILSVRC2015_VID_train_0000/ILSVRC2015_train_00071016/'
p229
aS'train/ILSVRC2015_VID_train_0000/ILSVRC2015_train_00005015/'
p230
aS'train/ILSVRC2015_VID_train_0000/ILSVRC2015_train_00051027/'
p231
aS'train/ILSVRC2015_VID_train_0000/ILSVRC2015_train_00124009/'
p232
aS'train/ILSVRC2015_VID_train_0000/ILSVRC2015_train_00073006/'
p233
aS'train/ILSVRC2015_VID_train_0000/ILSVRC2015_train_00005009/'
p234
aS'train/ILSVRC2015_VID_train_0000/ILSVRC2015_train_00025034/'
p235
aS'train/ILSVRC2015_VID_train_0000/ILSVRC2015_train_00071000/'
p236
aS'train/ILSVRC2015_VID_train_0000/ILSVRC2015_train_00092011/'
p237
aS'train/ILSVRC2015_VID_train_0000/ILSVRC2015_train_00073022/'
p238
aS'train/ILSVRC2015_VID_train_0000/ILSVRC2015_train_00064000/'
p239
aS'train/ILSVRC2015_VID_train_0000/ILSVRC2015_train_00071009/'
p240
aS'train/ILSVRC2015_VID_train_0000/ILSVRC2015_train_00025029/'
p241
aS'train/ILSVRC2015_VID_train_0000/ILSVRC2015_train_00117026/'
p242
aS'train/ILSVRC2015_VID_train_0000/ILSVRC2015_train_00064003/'
p243
aS'train/ILSVRC2015_VID_train_0000/ILSVRC2015_train_00047019/'
p244
aS'train/ILSVRC2015_VID_train_0000/ILSVRC2015_train_00138001/'
p245
aS'train/ILSVRC2015_VID_train_0000/ILSVRC2015_train_00009000/'
p246
aS'train/ILSVRC2015_VID_train_0000/ILSVRC2015_train_00040024/'
p247
aS'train/ILSVRC2015_VID_train_0000/ILSVRC2015_train_00102004/'
p248
aS'train/ILSVRC2015_VID_train_0000/ILSVRC2015_train_00090001/'
p249
aS'train/ILSVRC2015_VID_train_0000/ILSVRC2015_train_00092013/'
p250
aS'train/ILSVRC2015_VID_train_0000/ILSVRC2015_train_00051004/'
p251
aS'train/ILSVRC2015_VID_train_0000/ILSVRC2015_train_00138008/'
p252
aS'train/ILSVRC2015_VID_train_0000/ILSVRC2015_train_00071019/'
p253
aS'train/ILSVRC2015_VID_train_0000/ILSVRC2015_train_00138010/'
p254
aS'train/ILSVRC2015_VID_train_0000/ILSVRC2015_train_00010007/'
p255
aS'train/ILSVRC2015_VID_train_0000/ILSVRC2015_train_00005003/'
p256
aS'train/ILSVRC2015_VID_train_0000/ILSVRC2015_train_00016010/'
p257
aS'train/ILSVRC2015_VID_train_0000/ILSVRC2015_train_00092009/'
p258
aS'train/ILSVRC2015_VID_train_0000/ILSVRC2015_train_00073038/'
p259
aS'train/ILSVRC2015_VID_train_0000/ILSVRC2015_train_00138018/'
p260
aS'train/ILSVRC2015_VID_train_0000/ILSVRC2015_train_00125002/'
p261
aS'train/ILSVRC2015_VID_train_0000/ILSVRC2015_train_00119015/'
p262
aS'train/ILSVRC2015_VID_train_0000/ILSVRC2015_train_00047022/'
p263
aS'train/ILSVRC2015_VID_train_0000/ILSVRC2015_train_00016000/'
p264
aS'train/ILSVRC2015_VID_train_0000/ILSVRC2015_train_00092034/'
p265
aS'train/ILSVRC2015_VID_train_0000/ILSVRC2015_train_00005013/'
p266
aS'train/ILSVRC2015_VID_train_0000/ILSVRC2015_train_00010015/'
p267
aS'train/ILSVRC2015_VID_train_0000/ILSVRC2015_train_00138007/'
p268
aS'train/ILSVRC2015_VID_train_0000/ILSVRC2015_train_00010008/'
p269
aS'train/ILSVRC2015_VID_train_0000/ILSVRC2015_train_00030001/'
p270
aS'train/ILSVRC2015_VID_train_0000/ILSVRC2015_train_00010026/'
p271
aS'train/ILSVRC2015_VID_train_0000/ILSVRC2015_train_00053011/'
p272
aS'train/ILSVRC2015_VID_train_0000/ILSVRC2015_train_00090000/'
p273
aS'train/ILSVRC2015_VID_train_0000/ILSVRC2015_train_00040030/'
p274
aS'train/ILSVRC2015_VID_train_0000/ILSVRC2015_train_00068015/'
p275
aS'train/ILSVRC2015_VID_train_0000/ILSVRC2015_train_00092036/'
p276
aS'train/ILSVRC2015_VID_train_0000/ILSVRC2015_train_00092032/'
p277
aS'train/ILSVRC2015_VID_train_0000/ILSVRC2015_train_00005011/'
p278
aS'train/ILSVRC2015_VID_train_0000/ILSVRC2015_train_00102020/'
p279
aS'train/ILSVRC2015_VID_train_0000/ILSVRC2015_train_00138022/'
p280
aS'train/ILSVRC2015_VID_train_0000/ILSVRC2015_train_00073017/'
p281
aS'train/ILSVRC2015_VID_train_0000/ILSVRC2015_train_00102027/'
p282
aS'train/ILSVRC2015_VID_train_0000/ILSVRC2015_train_00117040/'
p283
aS'train/ILSVRC2015_VID_train_0000/ILSVRC2015_train_00034017/'
p284
aS'train/ILSVRC2015_VID_train_0000/ILSVRC2015_train_00051009/'
p285
aS'train/ILSVRC2015_VID_train_0000/ILSVRC2015_train_00117034/'
p286
aS'train/ILSVRC2015_VID_train_0000/ILSVRC2015_train_00016011/'
p287
aS'train/ILSVRC2015_VID_train_0000/ILSVRC2015_train_00010016/'
p288
aS'train/ILSVRC2015_VID_train_0000/ILSVRC2015_train_00025002/'
p289
aS'train/ILSVRC2015_VID_train_0000/ILSVRC2015_train_00117018/'
p290
aS'train/ILSVRC2015_VID_train_0000/ILSVRC2015_train_00092028/'
p291
aS'train/ILSVRC2015_VID_train_0000/ILSVRC2015_train_00073011/'
p292
aS'train/ILSVRC2015_VID_train_0000/ILSVRC2015_train_00092038/'
p293
aS'train/ILSVRC2015_VID_train_0000/ILSVRC2015_train_00092002/'
p294
aS'train/ILSVRC2015_VID_train_0000/ILSVRC2015_train_00051013/'
p295
aS'train/ILSVRC2015_VID_train_0000/ILSVRC2015_train_00051023/'
p296
aS'train/ILSVRC2015_VID_train_0000/ILSVRC2015_train_00012001/'
p297
aS'train/ILSVRC2015_VID_train_0000/ILSVRC2015_train_00010031/'
p298
aS'train/ILSVRC2015_VID_train_0000/ILSVRC2015_train_00010030/'
p299
aS'train/ILSVRC2015_VID_train_0000/ILSVRC2015_train_00016006/'
p300
aS'train/ILSVRC2015_VID_train_0000/ILSVRC2015_train_00068005/'
p301
aS'train/ILSVRC2015_VID_train_0000/ILSVRC2015_train_00006000/'
p302
aS'train/ILSVRC2015_VID_train_0000/ILSVRC2015_train_00124008/'
p303
aS'train/ILSVRC2015_VID_train_0000/ILSVRC2015_train_00040031/'
p304
aS'train/ILSVRC2015_VID_train_0000/ILSVRC2015_train_00010009/'
p305
aS'train/ILSVRC2015_VID_train_0000/ILSVRC2015_train_00047017/'
p306
aS'train/ILSVRC2015_VID_train_0000/ILSVRC2015_train_00053004/'
p307
aS'train/ILSVRC2015_VID_train_0000/ILSVRC2015_train_00053001/'
p308
aS'train/ILSVRC2015_VID_train_0000/ILSVRC2015_train_00119002/'
p309
aS'train/ILSVRC2015_VID_train_0000/ILSVRC2015_train_00117020/'
p310
aS'train/ILSVRC2015_VID_train_0000/ILSVRC2015_train_00056002/'
p311
aS'train/ILSVRC2015_VID_train_0000/ILSVRC2015_train_00092031/'
p312
aS'train/ILSVRC2015_VID_train_0000/ILSVRC2015_train_00051036/'
p313
aS'train/ILSVRC2015_VID_train_0000/ILSVRC2015_train_00117038/'
p314
aS'train/ILSVRC2015_VID_train_0000/ILSVRC2015_train_00012009/'
p315
aS'train/ILSVRC2015_VID_train_0000/ILSVRC2015_train_00040026/'
p316
aS'train/ILSVRC2015_VID_train_0000/ILSVRC2015_train_00098004/'
p317
aS'train/ILSVRC2015_VID_train_0000/ILSVRC2015_train_00010002/'
p318
aS'train/ILSVRC2015_VID_train_0000/ILSVRC2015_train_00125012/'
p319
aS'train/ILSVRC2015_VID_train_0000/ILSVRC2015_train_00092042/'
p320
aS'train/ILSVRC2015_VID_train_0000/ILSVRC2015_train_00047021/'
p321
aS'train/ILSVRC2015_VID_train_0000/ILSVRC2015_train_00010022/'
p322
aS'train/ILSVRC2015_VID_train_0000/ILSVRC2015_train_00073029/'
p323
aS'train/ILSVRC2015_VID_train_0000/ILSVRC2015_train_00025004/'
p324
aS'train/ILSVRC2015_VID_train_0000/ILSVRC2015_train_00051029/'
p325
aS'train/ILSVRC2015_VID_train_0000/ILSVRC2015_train_00040022/'
p326
aS'train/ILSVRC2015_VID_train_0000/ILSVRC2015_train_00010039/'
p327
aS'train/ILSVRC2015_VID_train_0000/ILSVRC2015_train_00092020/'
p328
aS'train/ILSVRC2015_VID_train_0000/ILSVRC2015_train_00051031/'
p329
aS'train/ILSVRC2015_VID_train_0000/ILSVRC2015_train_00068009/'
p330
aS'train/ILSVRC2015_VID_train_0000/ILSVRC2015_train_00119016/'
p331
aS'train/ILSVRC2015_VID_train_0000/ILSVRC2015_train_00125015/'
p332
aS'train/ILSVRC2015_VID_train_0000/ILSVRC2015_train_00047020/'
p333
aS'train/ILSVRC2015_VID_train_0000/ILSVRC2015_train_00020003/'
p334
aS'train/ILSVRC2015_VID_train_0000/ILSVRC2015_train_00073004/'
p335
aS'train/ILSVRC2015_VID_train_0000/ILSVRC2015_train_00138004/'
p336
aS'train/ILSVRC2015_VID_train_0000/ILSVRC2015_train_00092018/'
p337
aS'train/ILSVRC2015_VID_train_0000/ILSVRC2015_train_00119004/'
p338
aS'train/ILSVRC2015_VID_train_0000/ILSVRC2015_train_00115004/'
p339
aS'train/ILSVRC2015_VID_train_0000/ILSVRC2015_train_00047001/'
p340
aS'train/ILSVRC2015_VID_train_0000/ILSVRC2015_train_00119008/'
p341
aS'train/ILSVRC2015_VID_train_0000/ILSVRC2015_train_00102031/'
p342
aS'train/ILSVRC2015_VID_train_0000/ILSVRC2015_train_00010001/'
p343
aS'train/ILSVRC2015_VID_train_0000/ILSVRC2015_train_00040009/'
p344
aS'train/ILSVRC2015_VID_train_0000/ILSVRC2015_train_00098007/'
p345
aS'train/ILSVRC2015_VID_train_0000/ILSVRC2015_train_00124003/'
p346
aS'train/ILSVRC2015_VID_train_0000/ILSVRC2015_train_00119028/'
p347
aS'train/ILSVRC2015_VID_train_0000/ILSVRC2015_train_00034004/'
p348
aS'train/ILSVRC2015_VID_train_0000/ILSVRC2015_train_00040007/'
p349
aS'train/ILSVRC2015_VID_train_0000/ILSVRC2015_train_00034016/'
p350
aS'train/ILSVRC2015_VID_train_0000/ILSVRC2015_train_00119042/'
p351
aS'train/ILSVRC2015_VID_train_0000/ILSVRC2015_train_00050001/'
p352
aS'train/ILSVRC2015_VID_train_0000/ILSVRC2015_train_00092016/'
p353
aS'train/ILSVRC2015_VID_train_0000/ILSVRC2015_train_00025032/'
p354
aS'train/ILSVRC2015_VID_train_0000/ILSVRC2015_train_00010020/'
p355
aS'train/ILSVRC2015_VID_train_0000/ILSVRC2015_train_00071002/'
p356
aS'train/ILSVRC2015_VID_train_0000/ILSVRC2015_train_00060013/'
p357
aS'train/ILSVRC2015_VID_train_0000/ILSVRC2015_train_00092021/'
p358
aS'train/ILSVRC2015_VID_train_0000/ILSVRC2015_train_00119034/'
p359
aS'train/ILSVRC2015_VID_train_0000/ILSVRC2015_train_00025005/'
p360
aS'train/ILSVRC2015_VID_train_0000/ILSVRC2015_train_00073007/'
p361
aS'train/ILSVRC2015_VID_train_0000/ILSVRC2015_train_00051012/'
p362
aS'train/ILSVRC2015_VID_train_0000/ILSVRC2015_train_00117000/'
p363
aS'train/ILSVRC2015_VID_train_0000/ILSVRC2015_train_00092015/'
p364
aS'train/ILSVRC2015_VID_train_0000/ILSVRC2015_train_00060014/'
p365
aS'train/ILSVRC2015_VID_train_0000/ILSVRC2015_train_00060016/'
p366
aS'train/ILSVRC2015_VID_train_0000/ILSVRC2015_train_00020002/'
p367
aS'train/ILSVRC2015_VID_train_0000/ILSVRC2015_train_00138021/'
p368
aS'train/ILSVRC2015_VID_train_0000/ILSVRC2015_train_00071006/'
p369
aS'train/ILSVRC2015_VID_train_0000/ILSVRC2015_train_00012005/'
p370
aS'train/ILSVRC2015_VID_train_0000/ILSVRC2015_train_00102001/'
p371
aS'train/ILSVRC2015_VID_train_0000/ILSVRC2015_train_00125003/'
p372
aS'train/ILSVRC2015_VID_train_0000/ILSVRC2015_train_00025035/'
p373
aS'train/ILSVRC2015_VID_train_0000/ILSVRC2015_train_00051001/'
p374
aS'train/ILSVRC2015_VID_train_0000/ILSVRC2015_train_00005002/'
p375
aS'train/ILSVRC2015_VID_train_0000/ILSVRC2015_train_00119045/'
p376
aS'train/ILSVRC2015_VID_train_0000/ILSVRC2015_train_00124000/'
p377
aS'train/ILSVRC2015_VID_train_0000/ILSVRC2015_train_00047011/'
p378
aS'train/ILSVRC2015_VID_train_0000/ILSVRC2015_train_00021000/'
p379
aS'train/ILSVRC2015_VID_train_0000/ILSVRC2015_train_00119011/'
p380
aS'train/ILSVRC2015_VID_train_0000/ILSVRC2015_train_00051019/'
p381
aS'train/ILSVRC2015_VID_train_0000/ILSVRC2015_train_00068012/'
p382
aS'train/ILSVRC2015_VID_train_0000/ILSVRC2015_train_00138020/'
p383
aS'train/ILSVRC2015_VID_train_0000/ILSVRC2015_train_00092026/'
p384
aS'train/ILSVRC2015_VID_train_0000/ILSVRC2015_train_00119030/'
p385
aS'train/ILSVRC2015_VID_train_0000/ILSVRC2015_train_00034014/'
p386
aS'train/ILSVRC2015_VID_train_0000/ILSVRC2015_train_00125006/'
p387
aS'train/ILSVRC2015_VID_train_0000/ILSVRC2015_train_00005005/'
p388
aS'train/ILSVRC2015_VID_train_0000/ILSVRC2015_train_00073026/'
p389
aS'train/ILSVRC2015_VID_train_0000/ILSVRC2015_train_00008006/'
p390
aS'train/ILSVRC2015_VID_train_0000/ILSVRC2015_train_00119005/'
p391
aS'train/ILSVRC2015_VID_train_0000/ILSVRC2015_train_00010003/'
p392
aS'train/ILSVRC2015_VID_train_0000/ILSVRC2015_train_00119046/'
p393
aS'train/ILSVRC2015_VID_train_0000/ILSVRC2015_train_00138003/'
p394
aS'train/ILSVRC2015_VID_train_0000/ILSVRC2015_train_00020001/'
p395
aS'train/ILSVRC2015_VID_train_0000/ILSVRC2015_train_00071017/'
p396
aS'train/ILSVRC2015_VID_train_0000/ILSVRC2015_train_00102028/'
p397
aS'train/ILSVRC2015_VID_train_0000/ILSVRC2015_train_00073013/'
p398
aS'train/ILSVRC2015_VID_train_0000/ILSVRC2015_train_00016008/'
p399
aS'train/ILSVRC2015_VID_train_0000/ILSVRC2015_train_00005008/'
p400
aS'train/ILSVRC2015_VID_train_0000/ILSVRC2015_train_00102026/'
p401
aS'train/ILSVRC2015_VID_train_0000/ILSVRC2015_train_00053003/'
p402
aS'train/ILSVRC2015_VID_train_0000/ILSVRC2015_train_00125013/'
p403
aS'train/ILSVRC2015_VID_train_0000/ILSVRC2015_train_00117032/'
p404
aS'train/ILSVRC2015_VID_train_0000/ILSVRC2015_train_00010032/'
p405
aS'train/ILSVRC2015_VID_train_0000/ILSVRC2015_train_00098000/'
p406
aS'train/ILSVRC2015_VID_train_0000/ILSVRC2015_train_00053010/'
p407
aS'train/ILSVRC2015_VID_train_0000/ILSVRC2015_train_00040005/'
p408
aS'train/ILSVRC2015_VID_train_0000/ILSVRC2015_train_00005012/'
p409
aS'train/ILSVRC2015_VID_train_0000/ILSVRC2015_train_00071008/'
p410
aS'train/ILSVRC2015_VID_train_0000/ILSVRC2015_train_00092040/'
p411
aS'train/ILSVRC2015_VID_train_0000/ILSVRC2015_train_00090003/'
p412
aS'train/ILSVRC2015_VID_train_0000/ILSVRC2015_train_00138002/'
p413
aS'train/ILSVRC2015_VID_train_0000/ILSVRC2015_train_00012000/'
p414
aS'train/ILSVRC2015_VID_train_0000/ILSVRC2015_train_00119003/'
p415
aS'train/ILSVRC2015_VID_train_0000/ILSVRC2015_train_00051007/'
p416
aS'train/ILSVRC2015_VID_train_0000/ILSVRC2015_train_00138014/'
p417
aS'train/ILSVRC2015_VID_train_0000/ILSVRC2015_train_00092041/'
p418
aS'train/ILSVRC2015_VID_train_0000/ILSVRC2015_train_00025014/'
p419
aS'train/ILSVRC2015_VID_train_0000/ILSVRC2015_train_00117028/'
p420
aS'train/ILSVRC2015_VID_train_0000/ILSVRC2015_train_00040013/'
p421
aS'train/ILSVRC2015_VID_train_0000/ILSVRC2015_train_00051018/'
p422
aS'train/ILSVRC2015_VID_train_0000/ILSVRC2015_train_00053009/'
p423
aS'train/ILSVRC2015_VID_train_0000/ILSVRC2015_train_00119018/'
p424
aS'train/ILSVRC2015_VID_train_0000/ILSVRC2015_train_00098002/'
p425
aS'train/ILSVRC2015_VID_train_0000/ILSVRC2015_train_00068001/'
p426
aS'train/ILSVRC2015_VID_train_0000/ILSVRC2015_train_00025015/'
p427
aS'train/ILSVRC2015_VID_train_0000/ILSVRC2015_train_00051006/'
p428
aS'train/ILSVRC2015_VID_train_0000/ILSVRC2015_train_00040016/'
p429
aS'train/ILSVRC2015_VID_train_0000/ILSVRC2015_train_00060007/'
p430
aS'train/ILSVRC2015_VID_train_0000/ILSVRC2015_train_00047007/'
p431
aS'train/ILSVRC2015_VID_train_0000/ILSVRC2015_train_00068008/'
p432
aS'train/ILSVRC2015_VID_train_0000/ILSVRC2015_train_00047016/'
p433
aS'train/ILSVRC2015_VID_train_0000/ILSVRC2015_train_00124006/'
p434
aS'train/ILSVRC2015_VID_train_0000/ILSVRC2015_train_00092008/'
p435
aS'train/ILSVRC2015_VID_train_0000/ILSVRC2015_train_00119022/'
p436
aS'train/ILSVRC2015_VID_train_0000/ILSVRC2015_train_00139001/'
p437
aS'train/ILSVRC2015_VID_train_0000/ILSVRC2015_train_00051030/'
p438
aS'train/ILSVRC2015_VID_train_0000/ILSVRC2015_train_00125008/'
p439
aS'train/ILSVRC2015_VID_train_0000/ILSVRC2015_train_00008002/'
p440
aS'train/ILSVRC2015_VID_train_0000/ILSVRC2015_train_00119019/'
p441
aS'train/ILSVRC2015_VID_train_0000/ILSVRC2015_train_00117035/'
p442
aS'train/ILSVRC2015_VID_train_0000/ILSVRC2015_train_00047000/'
p443
aS'train/ILSVRC2015_VID_train_0000/ILSVRC2015_train_00138015/'
p444
aS'train/ILSVRC2015_VID_train_0000/ILSVRC2015_train_00102030/'
p445
aS'train/ILSVRC2015_VID_train_0000/ILSVRC2015_train_00073003/'
p446
aS'train/ILSVRC2015_VID_train_0000/ILSVRC2015_train_00040011/'
p447
aS'train/ILSVRC2015_VID_train_0000/ILSVRC2015_train_00025027/'
p448
aS'train/ILSVRC2015_VID_train_0000/ILSVRC2015_train_00071013/'
p449
aS'train/ILSVRC2015_VID_train_0000/ILSVRC2015_train_00025018/'
p450
aS'train/ILSVRC2015_VID_train_0000/ILSVRC2015_train_00064002/'
p451
aS'train/ILSVRC2015_VID_train_0000/ILSVRC2015_train_00034000/'
p452
aS'train/ILSVRC2015_VID_train_0000/ILSVRC2015_train_00005014/'
p453
aS'train/ILSVRC2015_VID_train_0000/ILSVRC2015_train_00051014/'
p454
aS'train/ILSVRC2015_VID_train_0000/ILSVRC2015_train_00030002/'
p455
aS'train/ILSVRC2015_VID_train_0000/ILSVRC2015_train_00034019/'
p456
aS'train/ILSVRC2015_VID_train_0000/ILSVRC2015_train_00010012/'
p457
aS'train/ILSVRC2015_VID_train_0000/ILSVRC2015_train_00073021/'
p458
aS'train/ILSVRC2015_VID_train_0000/ILSVRC2015_train_00102018/'
p459
aS'train/ILSVRC2015_VID_train_0000/ILSVRC2015_train_00050006/'
p460
aS'train/ILSVRC2015_VID_train_0000/ILSVRC2015_train_00051033/'
p461
aS'train/ILSVRC2015_VID_train_0000/ILSVRC2015_train_00050007/'
p462
aS'train/ILSVRC2015_VID_train_0000/ILSVRC2015_train_00117027/'
p463
aS'train/ILSVRC2015_VID_train_0000/ILSVRC2015_train_00073016/'
p464
aS'train/ILSVRC2015_VID_train_0000/ILSVRC2015_train_00051026/'
p465
aS'train/ILSVRC2015_VID_train_0000/ILSVRC2015_train_00073030/'
p466
aS'train/ILSVRC2015_VID_train_0000/ILSVRC2015_train_00047009/'
p467
aS'train/ILSVRC2015_VID_train_0000/ILSVRC2015_train_00138000/'
p468
aS'train/ILSVRC2015_VID_train_0000/ILSVRC2015_train_00117041/'
p469
aS'train/ILSVRC2015_VID_train_0000/ILSVRC2015_train_00119000/'
p470
aS'train/ILSVRC2015_VID_train_0000/ILSVRC2015_train_00010010/'
p471
aS'train/ILSVRC2015_VID_train_0000/ILSVRC2015_train_00124004/'
p472
aS'train/ILSVRC2015_VID_train_0000/ILSVRC2015_train_00138009/'
p473
aS'train/ILSVRC2015_VID_train_0000/ILSVRC2015_train_00047013/'
p474
aS'train/ILSVRC2015_VID_train_0000/ILSVRC2015_train_00117002/'
p475
aS'train/ILSVRC2015_VID_train_0000/ILSVRC2015_train_00073037/'
p476
aS'train/ILSVRC2015_VID_train_0000/ILSVRC2015_train_00117015/'
p477
aS'train/ILSVRC2015_VID_train_0000/ILSVRC2015_train_00060010/'
p478
aS'train/ILSVRC2015_VID_train_0000/ILSVRC2015_train_00034013/'
p479
aS'train/ILSVRC2015_VID_train_0000/ILSVRC2015_train_00008003/'
p480
aS'train/ILSVRC2015_VID_train_0000/ILSVRC2015_train_00092007/'
p481
aS'train/ILSVRC2015_VID_train_0000/ILSVRC2015_train_00040000/'
p482
aS'train/ILSVRC2015_VID_train_0000/ILSVRC2015_train_00139002/'
p483
aS'train/ILSVRC2015_VID_train_0000/ILSVRC2015_train_00034015/'
p484
aS'train/ILSVRC2015_VID_train_0000/ILSVRC2015_train_00025024/'
p485
aS'train/ILSVRC2015_VID_train_0000/ILSVRC2015_train_00117006/'
p486
aS'train/ILSVRC2015_VID_train_0000/ILSVRC2015_train_00034018/'
p487
aS'train/ILSVRC2015_VID_train_0000/ILSVRC2015_train_00092023/'
p488
aS'train/ILSVRC2015_VID_train_0000/ILSVRC2015_train_00073005/'
p489
aS'train/ILSVRC2015_VID_train_0000/ILSVRC2015_train_00034009/'
p490
aS'train/ILSVRC2015_VID_train_0000/ILSVRC2015_train_00102005/'
p491
aS'train/ILSVRC2015_VID_train_0000/ILSVRC2015_train_00025011/'
p492
aS'train/ILSVRC2015_VID_train_0000/ILSVRC2015_train_00068006/'
p493
aS'train/ILSVRC2015_VID_train_0000/ILSVRC2015_train_00060015/'
p494
aS'train/ILSVRC2015_VID_train_0000/ILSVRC2015_train_00034021/'
p495
aS'train/ILSVRC2015_VID_train_0000/ILSVRC2015_train_00034011/'
p496
aS'train/ILSVRC2015_VID_train_0000/ILSVRC2015_train_00071014/'
p497
aS'train/ILSVRC2015_VID_train_0000/ILSVRC2015_train_00016004/'
p498
aS'train/ILSVRC2015_VID_train_0000/ILSVRC2015_train_00119010/'
p499
aS'train/ILSVRC2015_VID_train_0000/ILSVRC2015_train_00047018/'
p500
aS'train/ILSVRC2015_VID_train_0000/ILSVRC2015_train_00025017/'
p501
aS'train/ILSVRC2015_VID_train_0000/ILSVRC2015_train_00092022/'
p502
aS'train/ILSVRC2015_VID_train_0000/ILSVRC2015_train_00051022/'
p503
aS'train/ILSVRC2015_VID_train_0000/ILSVRC2015_train_00056001/'
p504
aS'train/ILSVRC2015_VID_train_0000/ILSVRC2015_train_00092030/'
p505
aS'train/ILSVRC2015_VID_train_0000/ILSVRC2015_train_00051024/'
p506
aS'train/ILSVRC2015_VID_train_0000/ILSVRC2015_train_00102008/'
p507
aS'train/ILSVRC2015_VID_train_0000/ILSVRC2015_train_00047008/'
p508
aS'train/ILSVRC2015_VID_train_0000/ILSVRC2015_train_00090002/'
p509
aS'train/ILSVRC2015_VID_train_0000/ILSVRC2015_train_00117039/'
p510
aS'train/ILSVRC2015_VID_train_0000/ILSVRC2015_train_00005019/'
p511
aS'train/ILSVRC2015_VID_train_0000/ILSVRC2015_train_00034022/'
p512
aS'train/ILSVRC2015_VID_train_0000/ILSVRC2015_train_00025026/'
p513
aS'train/ILSVRC2015_VID_train_0000/ILSVRC2015_train_00012002/'
p514
aS'train/ILSVRC2015_VID_train_0000/ILSVRC2015_train_00025003/'
p515
aS'train/ILSVRC2015_VID_train_0000/ILSVRC2015_train_00025030/'
p516
aS'train/ILSVRC2015_VID_train_0000/ILSVRC2015_train_00117013/'
p517
aS'train/ILSVRC2015_VID_train_0000/ILSVRC2015_train_00073035/'
p518
aS'train/ILSVRC2015_VID_train_0000/ILSVRC2015_train_00047003/'
p519
aS'train/ILSVRC2015_VID_train_0000/ILSVRC2015_train_00060002/'
p520
aS'train/ILSVRC2015_VID_train_0000/ILSVRC2015_train_00073015/'
p521
aS'train/ILSVRC2015_VID_train_0000/ILSVRC2015_train_00073008/'
p522
aS'train/ILSVRC2015_VID_train_0000/ILSVRC2015_train_00098005/'
p523
aS'train/ILSVRC2015_VID_train_0000/ILSVRC2015_train_00025037/'
p524
aS'train/ILSVRC2015_VID_train_0000/ILSVRC2015_train_00040008/'
p525
aS'train/ILSVRC2015_VID_train_0000/ILSVRC2015_train_00071012/'
p526
aS'train/ILSVRC2015_VID_train_0000/ILSVRC2015_train_00030000/'
p527
aS'train/ILSVRC2015_VID_train_0000/ILSVRC2015_train_00056003/'
p528
aS'train/ILSVRC2015_VID_train_0000/ILSVRC2015_train_00092014/'
p529
aS'train/ILSVRC2015_VID_train_0000/ILSVRC2015_train_00139005/'
p530
aS'train/ILSVRC2015_VID_train_0000/ILSVRC2015_train_00073020/'
p531
aS'train/ILSVRC2015_VID_train_0000/ILSVRC2015_train_00125004/'
p532
aS'train/ILSVRC2015_VID_train_0000/ILSVRC2015_train_00102010/'
p533
aS'train/ILSVRC2015_VID_train_0000/ILSVRC2015_train_00117024/'
p534
aS'train/ILSVRC2015_VID_train_0000/ILSVRC2015_train_00102006/'
p535
aS'train/ILSVRC2015_VID_train_0000/ILSVRC2015_train_00047023/'
p536
aS'train/ILSVRC2015_VID_train_0000/ILSVRC2015_train_00008004/'
p537
aS'train/ILSVRC2015_VID_train_0000/ILSVRC2015_train_00056007/'
p538
aS'train/ILSVRC2015_VID_train_0000/ILSVRC2015_train_00071001/'
p539
aS'train/ILSVRC2015_VID_train_0000/ILSVRC2015_train_00119012/'
p540
aS'train/ILSVRC2015_VID_train_0000/ILSVRC2015_train_00050005/'
p541
aS'train/ILSVRC2015_VID_train_0000/ILSVRC2015_train_00119033/'
p542
aS'train/ILSVRC2015_VID_train_0000/ILSVRC2015_train_00073009/'
p543
aS'train/ILSVRC2015_VID_train_0000/ILSVRC2015_train_00092001/'
p544
aS'train/ILSVRC2015_VID_train_0000/ILSVRC2015_train_00040023/'
p545
aS'train/ILSVRC2015_VID_train_0000/ILSVRC2015_train_00050003/'
p546
aS'train/ILSVRC2015_VID_train_0000/ILSVRC2015_train_00012008/'
p547
aS'train/ILSVRC2015_VID_train_0000/ILSVRC2015_train_00124002/'
p548
aS'train/ILSVRC2015_VID_train_0000/ILSVRC2015_train_00005016/'
p549
aS'train/ILSVRC2015_VID_train_0000/ILSVRC2015_train_00073001/'
p550
aS'train/ILSVRC2015_VID_train_0000/ILSVRC2015_train_00025033/'
p551
aS'train/ILSVRC2015_VID_train_0000/ILSVRC2015_train_00068007/'
p552
aS'train/ILSVRC2015_VID_train_0000/ILSVRC2015_train_00047015/'
p553
aS'train/ILSVRC2015_VID_train_0000/ILSVRC2015_train_00010017/'
p554
aS'train/ILSVRC2015_VID_train_0000/ILSVRC2015_train_00005000/'
p555
aS'train/ILSVRC2015_VID_train_0000/ILSVRC2015_train_00119024/'
p556
aS'train/ILSVRC2015_VID_train_0000/ILSVRC2015_train_00068011/'
p557
aS'train/ILSVRC2015_VID_train_0000/ILSVRC2015_train_00119021/'
p558
aS'train/ILSVRC2015_VID_train_0000/ILSVRC2015_train_00016002/'
p559
aS'train/ILSVRC2015_VID_train_0000/ILSVRC2015_train_00073012/'
p560
aS'train/ILSVRC2015_VID_train_0000/ILSVRC2015_train_00068003/'
p561
aS'train/ILSVRC2015_VID_train_0000/ILSVRC2015_train_00010014/'
p562
aS'train/ILSVRC2015_VID_train_0000/ILSVRC2015_train_00092033/'
p563
aS'train/ILSVRC2015_VID_train_0000/ILSVRC2015_train_00092012/'
p564
aS'train/ILSVRC2015_VID_train_0000/ILSVRC2015_train_00012007/'
p565
aS'train/ILSVRC2015_VID_train_0000/ILSVRC2015_train_00051035/'
p566
aS'train/ILSVRC2015_VID_train_0000/ILSVRC2015_train_00025023/'
p567
aS'train/ILSVRC2015_VID_train_0000/ILSVRC2015_train_00102002/'
p568
aS'train/ILSVRC2015_VID_train_0000/ILSVRC2015_train_00008008/'
p569
aS'train/ILSVRC2015_VID_train_0000/ILSVRC2015_train_00051020/'
p570
aS'train/ILSVRC2015_VID_train_0000/ILSVRC2015_train_00005018/'
p571
aS'train/ILSVRC2015_VID_train_0000/ILSVRC2015_train_00125001/'
p572
aS'train/ILSVRC2015_VID_train_0000/ILSVRC2015_train_00071003/'
p573
aS'train/ILSVRC2015_VID_train_0000/ILSVRC2015_train_00062000/'
p574
aS'train/ILSVRC2015_VID_train_0000/ILSVRC2015_train_00102009/'
p575
aS'train/ILSVRC2015_VID_train_0000/ILSVRC2015_train_00025036/'
p576
aS'train/ILSVRC2015_VID_train_0000/ILSVRC2015_train_00060008/'
p577
aS'train/ILSVRC2015_VID_train_0000/ILSVRC2015_train_00060003/'
p578
aS'train/ILSVRC2015_VID_train_0000/ILSVRC2015_train_00056009/'
p579
aS'train/ILSVRC2015_VID_train_0000/ILSVRC2015_train_00051005/'
p580
aS'train/ILSVRC2015_VID_train_0000/ILSVRC2015_train_00053007/'
p581
aS'train/ILSVRC2015_VID_train_0000/ILSVRC2015_train_00125000/'
p582
aS'train/ILSVRC2015_VID_train_0000/ILSVRC2015_train_00138012/'
p583
aS'train/ILSVRC2015_VID_train_0000/ILSVRC2015_train_00117017/'
p584
aS'train/ILSVRC2015_VID_train_0000/ILSVRC2015_train_00115002/'
p585
aS'train/ILSVRC2015_VID_train_0000/ILSVRC2015_train_00138019/'
p586
aS'train/ILSVRC2015_VID_train_0000/ILSVRC2015_train_00117001/'
p587
aS'train/ILSVRC2015_VID_train_0000/ILSVRC2015_train_00010034/'
p588
aS'train/ILSVRC2015_VID_train_0000/ILSVRC2015_train_00119014/'
p589
aS'train/ILSVRC2015_VID_train_0000/ILSVRC2015_train_00040021/'
p590
aS'train/ILSVRC2015_VID_train_0000/ILSVRC2015_train_00008000/'
p591
aS'train/ILSVRC2015_VID_train_0000/ILSVRC2015_train_00025007/'
p592
aS'train/ILSVRC2015_VID_train_0000/ILSVRC2015_train_00010040/'
p593
aS'train/ILSVRC2015_VID_train_0000/ILSVRC2015_train_00003000/'
p594
aS'train/ILSVRC2015_VID_train_0000/ILSVRC2015_train_00016005/'
p595
aS'train/ILSVRC2015_VID_train_0000/ILSVRC2015_train_00119017/'
p596
aS'train/ILSVRC2015_VID_train_0000/ILSVRC2015_train_00012003/'
p597
aS'train/ILSVRC2015_VID_train_0000/ILSVRC2015_train_00117004/'
p598
aS'train/ILSVRC2015_VID_train_0000/ILSVRC2015_train_00051034/'
p599
aS'train/ILSVRC2015_VID_train_0000/ILSVRC2015_train_00056006/'
p600
aS'train/ILSVRC2015_VID_train_0000/ILSVRC2015_train_00102015/'
p601
aS'train/ILSVRC2015_VID_train_0000/ILSVRC2015_train_00010004/'
p602
aS'train/ILSVRC2015_VID_train_0000/ILSVRC2015_train_00117037/'
p603
aS'train/ILSVRC2015_VID_train_0000/ILSVRC2015_train_00060005/'
p604
aS'train/ILSVRC2015_VID_train_0000/ILSVRC2015_train_00092027/'
p605
aS'train/ILSVRC2015_VID_train_0000/ILSVRC2015_train_00025009/'
p606
aS'train/ILSVRC2015_VID_train_0000/ILSVRC2015_train_00040015/'
p607
aS'train/ILSVRC2015_VID_train_0000/ILSVRC2015_train_00117023/'
p608
aS'train/ILSVRC2015_VID_train_0000/ILSVRC2015_train_00010035/'
p609
aS'train/ILSVRC2015_VID_train_0000/ILSVRC2015_train_00005004/'
p610
aS'train/ILSVRC2015_VID_train_0000/ILSVRC2015_train_00047014/'
p611
aS'train/ILSVRC2015_VID_train_0000/ILSVRC2015_train_00016009/'
p612
aS'train/ILSVRC2015_VID_train_0000/ILSVRC2015_train_00050004/'
p613
aS'train/ILSVRC2015_VID_train_0000/ILSVRC2015_train_00117030/'
p614
aS'train/ILSVRC2015_VID_train_0000/ILSVRC2015_train_00117019/'
p615
aS'train/ILSVRC2015_VID_train_0000/ILSVRC2015_train_00060000/'
p616
aS'train/ILSVRC2015_VID_train_0000/ILSVRC2015_train_00073028/'
p617
aS'train/ILSVRC2015_VID_train_0000/ILSVRC2015_train_00010028/'
p618
aS'train/ILSVRC2015_VID_train_0000/ILSVRC2015_train_00010027/'
p619
aS'train/ILSVRC2015_VID_train_0000/ILSVRC2015_train_00062001/'
p620
aS'train/ILSVRC2015_VID_train_0000/ILSVRC2015_train_00073024/'
p621
aS'train/ILSVRC2015_VID_train_0000/ILSVRC2015_train_00010005/'
p622
aS'train/ILSVRC2015_VID_train_0000/ILSVRC2015_train_00068013/'
p623
aS'train/ILSVRC2015_VID_train_0000/ILSVRC2015_train_00060004/'
p624
aS'train/ILSVRC2015_VID_train_0000/ILSVRC2015_train_00073018/'
p625
aS'train/ILSVRC2015_VID_train_0000/ILSVRC2015_train_00030003/'
p626
aS'train/ILSVRC2015_VID_train_0000/ILSVRC2015_train_00125005/'
p627
aS'train/ILSVRC2015_VID_train_0000/ILSVRC2015_train_00092024/'
p628
aS'train/ILSVRC2015_VID_train_0000/ILSVRC2015_train_00117025/'
p629
aS'train/ILSVRC2015_VID_train_0000/ILSVRC2015_train_00139004/'
p630
aS'train/ILSVRC2015_VID_train_0000/ILSVRC2015_train_00117007/'
p631
aS'train/ILSVRC2015_VID_train_0000/ILSVRC2015_train_00059000/'
p632
aS'train/ILSVRC2015_VID_train_0000/ILSVRC2015_train_00075000/'
p633
aS'train/ILSVRC2015_VID_train_0000/ILSVRC2015_train_00119044/'
p634
aS'train/ILSVRC2015_VID_train_0000/ILSVRC2015_train_00010011/'
p635
aS'train/ILSVRC2015_VID_train_0000/ILSVRC2015_train_00071010/'
p636
aS'train/ILSVRC2015_VID_train_0000/ILSVRC2015_train_00125007/'
p637
aS'train/ILSVRC2015_VID_train_0000/ILSVRC2015_train_00010029/'
p638
aS'train/ILSVRC2015_VID_train_0000/ILSVRC2015_train_00119013/'
p639
aS'train/ILSVRC2015_VID_train_0000/ILSVRC2015_train_00102024/'
p640
aS'train/ILSVRC2015_VID_train_0000/ILSVRC2015_train_00034005/'
p641
aS'train/ILSVRC2015_VID_train_0000/ILSVRC2015_train_00082000/'
p642
aS'train/ILSVRC2015_VID_train_0000/ILSVRC2015_train_00060012/'
p643
aS'train/ILSVRC2015_VID_train_0000/ILSVRC2015_train_00092005/'
p644
aS'train/ILSVRC2015_VID_train_0000/ILSVRC2015_train_00119023/'
p645
aS'train/ILSVRC2015_VID_train_0000/ILSVRC2015_train_00102003/'
p646
aS'train/ILSVRC2015_VID_train_0000/ILSVRC2015_train_00025022/'
p647
aS'train/ILSVRC2015_VID_train_0000/ILSVRC2015_train_00119027/'
p648
aS'train/ILSVRC2015_VID_train_0000/ILSVRC2015_train_00040010/'
p649
aS'train/ILSVRC2015_VID_train_0000/ILSVRC2015_train_00051002/'
p650
aS'train/ILSVRC2015_VID_train_0001/ILSVRC2015_train_00150002/'
p651
aS'train/ILSVRC2015_VID_train_0001/ILSVRC2015_train_00215000/'
p652
aS'train/ILSVRC2015_VID_train_0001/ILSVRC2015_train_00302007/'
p653
aS'train/ILSVRC2015_VID_train_0001/ILSVRC2015_train_00302026/'
p654
aS'train/ILSVRC2015_VID_train_0001/ILSVRC2015_train_00259023/'
p655
aS'train/ILSVRC2015_VID_train_0001/ILSVRC2015_train_00302009/'
p656
aS'train/ILSVRC2015_VID_train_0001/ILSVRC2015_train_00250003/'
p657
aS'train/ILSVRC2015_VID_train_0001/ILSVRC2015_train_00301022/'
p658
aS'train/ILSVRC2015_VID_train_0001/ILSVRC2015_train_00265034/'
p659
aS'train/ILSVRC2015_VID_train_0001/ILSVRC2015_train_00308019/'
p660
aS'train/ILSVRC2015_VID_train_0001/ILSVRC2015_train_00250009/'
p661
aS'train/ILSVRC2015_VID_train_0001/ILSVRC2015_train_00181009/'
p662
aS'train/ILSVRC2015_VID_train_0001/ILSVRC2015_train_00308007/'
p663
aS'train/ILSVRC2015_VID_train_0001/ILSVRC2015_train_00235000/'
p664
aS'train/ILSVRC2015_VID_train_0001/ILSVRC2015_train_00329000/'
p665
aS'train/ILSVRC2015_VID_train_0001/ILSVRC2015_train_00272036/'
p666
aS'train/ILSVRC2015_VID_train_0001/ILSVRC2015_train_00235003/'
p667
aS'train/ILSVRC2015_VID_train_0001/ILSVRC2015_train_00215008/'
p668
aS'train/ILSVRC2015_VID_train_0001/ILSVRC2015_train_00229000/'
p669
aS'train/ILSVRC2015_VID_train_0001/ILSVRC2015_train_00265012/'
p670
aS'train/ILSVRC2015_VID_train_0001/ILSVRC2015_train_00302027/'
p671
aS'train/ILSVRC2015_VID_train_0001/ILSVRC2015_train_00235002/'
p672
aS'train/ILSVRC2015_VID_train_0001/ILSVRC2015_train_00265048/'
p673
aS'train/ILSVRC2015_VID_train_0001/ILSVRC2015_train_00321001/'
p674
aS'train/ILSVRC2015_VID_train_0001/ILSVRC2015_train_00209005/'
p675
aS'train/ILSVRC2015_VID_train_0001/ILSVRC2015_train_00324002/'
p676
aS'train/ILSVRC2015_VID_train_0001/ILSVRC2015_train_00253021/'
p677
aS'train/ILSVRC2015_VID_train_0001/ILSVRC2015_train_00273002/'
p678
aS'train/ILSVRC2015_VID_train_0001/ILSVRC2015_train_00265041/'
p679
aS'train/ILSVRC2015_VID_train_0001/ILSVRC2015_train_00250010/'
p680
aS'train/ILSVRC2015_VID_train_0001/ILSVRC2015_train_00215007/'
p681
aS'train/ILSVRC2015_VID_train_0001/ILSVRC2015_train_00176001/'
p682
aS'train/ILSVRC2015_VID_train_0001/ILSVRC2015_train_00265050/'
p683
aS'train/ILSVRC2015_VID_train_0001/ILSVRC2015_train_00308004/'
p684
aS'train/ILSVRC2015_VID_train_0001/ILSVRC2015_train_00265033/'
p685
aS'train/ILSVRC2015_VID_train_0001/ILSVRC2015_train_00253017/'
p686
aS'train/ILSVRC2015_VID_train_0001/ILSVRC2015_train_00177000/'
p687
aS'train/ILSVRC2015_VID_train_0001/ILSVRC2015_train_00293005/'
p688
aS'train/ILSVRC2015_VID_train_0001/ILSVRC2015_train_00181000/'
p689
aS'train/ILSVRC2015_VID_train_0001/ILSVRC2015_train_00265062/'
p690
aS'train/ILSVRC2015_VID_train_0001/ILSVRC2015_train_00259006/'
p691
aS'train/ILSVRC2015_VID_train_0001/ILSVRC2015_train_00301021/'
p692
aS'train/ILSVRC2015_VID_train_0001/ILSVRC2015_train_00301015/'
p693
aS'train/ILSVRC2015_VID_train_0001/ILSVRC2015_train_00265030/'
p694
aS'train/ILSVRC2015_VID_train_0001/ILSVRC2015_train_00176002/'
p695
aS'train/ILSVRC2015_VID_train_0001/ILSVRC2015_train_00161012/'
p696
aS'train/ILSVRC2015_VID_train_0001/ILSVRC2015_train_00282001/'
p697
aS'train/ILSVRC2015_VID_train_0001/ILSVRC2015_train_00290005/'
p698
aS'train/ILSVRC2015_VID_train_0001/ILSVRC2015_train_00326000/'
p699
aS'train/ILSVRC2015_VID_train_0001/ILSVRC2015_train_00265051/'
p700
aS'train/ILSVRC2015_VID_train_0001/ILSVRC2015_train_00168001/'
p701
aS'train/ILSVRC2015_VID_train_0001/ILSVRC2015_train_00265008/'
p702
aS'train/ILSVRC2015_VID_train_0001/ILSVRC2015_train_00265043/'
p703
aS'train/ILSVRC2015_VID_train_0001/ILSVRC2015_train_00253015/'
p704
aS'train/ILSVRC2015_VID_train_0001/ILSVRC2015_train_00253029/'
p705
aS'train/ILSVRC2015_VID_train_0001/ILSVRC2015_train_00168000/'
p706
aS'train/ILSVRC2015_VID_train_0001/ILSVRC2015_train_00290017/'
p707
aS'train/ILSVRC2015_VID_train_0001/ILSVRC2015_train_00229001/'
p708
aS'train/ILSVRC2015_VID_train_0001/ILSVRC2015_train_00253027/'
p709
aS'train/ILSVRC2015_VID_train_0001/ILSVRC2015_train_00177001/'
p710
aS'train/ILSVRC2015_VID_train_0001/ILSVRC2015_train_00265007/'
p711
aS'train/ILSVRC2015_VID_train_0001/ILSVRC2015_train_00308015/'
p712
aS'train/ILSVRC2015_VID_train_0001/ILSVRC2015_train_00168009/'
p713
aS'train/ILSVRC2015_VID_train_0001/ILSVRC2015_train_00253011/'
p714
aS'train/ILSVRC2015_VID_train_0001/ILSVRC2015_train_00265047/'
p715
aS'train/ILSVRC2015_VID_train_0001/ILSVRC2015_train_00272035/'
p716
aS'train/ILSVRC2015_VID_train_0001/ILSVRC2015_train_00272015/'
p717
aS'train/ILSVRC2015_VID_train_0001/ILSVRC2015_train_00209000/'
p718
aS'train/ILSVRC2015_VID_train_0001/ILSVRC2015_train_00272033/'
p719
aS'train/ILSVRC2015_VID_train_0001/ILSVRC2015_train_00194010/'
p720
aS'train/ILSVRC2015_VID_train_0001/ILSVRC2015_train_00290006/'
p721
aS'train/ILSVRC2015_VID_train_0001/ILSVRC2015_train_00272008/'
p722
aS'train/ILSVRC2015_VID_train_0001/ILSVRC2015_train_00265042/'
p723
aS'train/ILSVRC2015_VID_train_0001/ILSVRC2015_train_00259019/'
p724
aS'train/ILSVRC2015_VID_train_0001/ILSVRC2015_train_00188001/'
p725
aS'train/ILSVRC2015_VID_train_0001/ILSVRC2015_train_00181005/'
p726
aS'train/ILSVRC2015_VID_train_0001/ILSVRC2015_train_00272028/'
p727
aS'train/ILSVRC2015_VID_train_0001/ILSVRC2015_train_00290004/'
p728
aS'train/ILSVRC2015_VID_train_0001/ILSVRC2015_train_00338000/'
p729
aS'train/ILSVRC2015_VID_train_0001/ILSVRC2015_train_00297000/'
p730
aS'train/ILSVRC2015_VID_train_0001/ILSVRC2015_train_00176005/'
p731
aS'train/ILSVRC2015_VID_train_0001/ILSVRC2015_train_00256009/'
p732
aS'train/ILSVRC2015_VID_train_0001/ILSVRC2015_train_00265027/'
p733
aS'train/ILSVRC2015_VID_train_0001/ILSVRC2015_train_00161013/'
p734
aS'train/ILSVRC2015_VID_train_0001/ILSVRC2015_train_00265064/'
p735
aS'train/ILSVRC2015_VID_train_0001/ILSVRC2015_train_00272027/'
p736
aS'train/ILSVRC2015_VID_train_0001/ILSVRC2015_train_00302011/'
p737
aS'train/ILSVRC2015_VID_train_0001/ILSVRC2015_train_00194005/'
p738
aS'train/ILSVRC2015_VID_train_0001/ILSVRC2015_train_00259028/'
p739
aS'train/ILSVRC2015_VID_train_0001/ILSVRC2015_train_00184004/'
p740
aS'train/ILSVRC2015_VID_train_0001/ILSVRC2015_train_00308001/'
p741
aS'train/ILSVRC2015_VID_train_0001/ILSVRC2015_train_00177009/'
p742
aS'train/ILSVRC2015_VID_train_0001/ILSVRC2015_train_00150017/'
p743
aS'train/ILSVRC2015_VID_train_0001/ILSVRC2015_train_00308018/'
p744
aS'train/ILSVRC2015_VID_train_0001/ILSVRC2015_train_00265010/'
p745
aS'train/ILSVRC2015_VID_train_0001/ILSVRC2015_train_00265011/'
p746
aS'train/ILSVRC2015_VID_train_0001/ILSVRC2015_train_00293001/'
p747
aS'train/ILSVRC2015_VID_train_0001/ILSVRC2015_train_00253005/'
p748
aS'train/ILSVRC2015_VID_train_0001/ILSVRC2015_train_00150001/'
p749
aS'train/ILSVRC2015_VID_train_0001/ILSVRC2015_train_00235001/'
p750
aS'train/ILSVRC2015_VID_train_0001/ILSVRC2015_train_00253028/'
p751
aS'train/ILSVRC2015_VID_train_0001/ILSVRC2015_train_00161019/'
p752
aS'train/ILSVRC2015_VID_train_0001/ILSVRC2015_train_00265073/'
p753
aS'train/ILSVRC2015_VID_train_0001/ILSVRC2015_train_00302018/'
p754
aS'train/ILSVRC2015_VID_train_0001/ILSVRC2015_train_00161014/'
p755
aS'train/ILSVRC2015_VID_train_0001/ILSVRC2015_train_00259001/'
p756
aS'train/ILSVRC2015_VID_train_0001/ILSVRC2015_train_00273000/'
p757
aS'train/ILSVRC2015_VID_train_0001/ILSVRC2015_train_00265065/'
p758
aS'train/ILSVRC2015_VID_train_0001/ILSVRC2015_train_00259004/'
p759
aS'train/ILSVRC2015_VID_train_0001/ILSVRC2015_train_00302013/'
p760
aS'train/ILSVRC2015_VID_train_0001/ILSVRC2015_train_00290009/'
p761
aS'train/ILSVRC2015_VID_train_0001/ILSVRC2015_train_00161018/'
p762
aS'train/ILSVRC2015_VID_train_0001/ILSVRC2015_train_00256000/'
p763
aS'train/ILSVRC2015_VID_train_0001/ILSVRC2015_train_00272006/'
p764
aS'train/ILSVRC2015_VID_train_0001/ILSVRC2015_train_00250007/'
p765
aS'train/ILSVRC2015_VID_train_0001/ILSVRC2015_train_00272013/'
p766
aS'train/ILSVRC2015_VID_train_0001/ILSVRC2015_train_00259002/'
p767
aS'train/ILSVRC2015_VID_train_0001/ILSVRC2015_train_00265057/'
p768
aS'train/ILSVRC2015_VID_train_0001/ILSVRC2015_train_00150023/'
p769
aS'train/ILSVRC2015_VID_train_0001/ILSVRC2015_train_00290021/'
p770
aS'train/ILSVRC2015_VID_train_0001/ILSVRC2015_train_00259027/'
p771
aS'train/ILSVRC2015_VID_train_0001/ILSVRC2015_train_00323000/'
p772
aS'train/ILSVRC2015_VID_train_0001/ILSVRC2015_train_00177008/'
p773
aS'train/ILSVRC2015_VID_train_0001/ILSVRC2015_train_00265014/'
p774
aS'train/ILSVRC2015_VID_train_0001/ILSVRC2015_train_00176003/'
p775
aS'train/ILSVRC2015_VID_train_0001/ILSVRC2015_train_00265045/'
p776
aS'train/ILSVRC2015_VID_train_0001/ILSVRC2015_train_00302016/'
p777
aS'train/ILSVRC2015_VID_train_0001/ILSVRC2015_train_00253003/'
p778
aS'train/ILSVRC2015_VID_train_0001/ILSVRC2015_train_00272001/'
p779
aS'train/ILSVRC2015_VID_train_0001/ILSVRC2015_train_00253012/'
p780
aS'train/ILSVRC2015_VID_train_0001/ILSVRC2015_train_00301000/'
p781
aS'train/ILSVRC2015_VID_train_0001/ILSVRC2015_train_00341000/'
p782
aS'train/ILSVRC2015_VID_train_0001/ILSVRC2015_train_00272002/'
p783
aS'train/ILSVRC2015_VID_train_0001/ILSVRC2015_train_00194000/'
p784
aS'train/ILSVRC2015_VID_train_0001/ILSVRC2015_train_00265054/'
p785
aS'train/ILSVRC2015_VID_train_0001/ILSVRC2015_train_00318000/'
p786
aS'train/ILSVRC2015_VID_train_0001/ILSVRC2015_train_00185001/'
p787
aS'train/ILSVRC2015_VID_train_0001/ILSVRC2015_train_00308021/'
p788
aS'train/ILSVRC2015_VID_train_0001/ILSVRC2015_train_00272000/'
p789
aS'train/ILSVRC2015_VID_train_0001/ILSVRC2015_train_00301014/'
p790
aS'train/ILSVRC2015_VID_train_0001/ILSVRC2015_train_00184006/'
p791
aS'train/ILSVRC2015_VID_train_0001/ILSVRC2015_train_00301010/'
p792
aS'train/ILSVRC2015_VID_train_0001/ILSVRC2015_train_00184000/'
p793
aS'train/ILSVRC2015_VID_train_0001/ILSVRC2015_train_00308000/'
p794
aS'train/ILSVRC2015_VID_train_0001/ILSVRC2015_train_00293007/'
p795
aS'train/ILSVRC2015_VID_train_0001/ILSVRC2015_train_00253013/'
p796
aS'train/ILSVRC2015_VID_train_0001/ILSVRC2015_train_00161001/'
p797
aS'train/ILSVRC2015_VID_train_0001/ILSVRC2015_train_00168007/'
p798
aS'train/ILSVRC2015_VID_train_0001/ILSVRC2015_train_00301007/'
p799
aS'train/ILSVRC2015_VID_train_0001/ILSVRC2015_train_00308020/'
p800
aS'train/ILSVRC2015_VID_train_0001/ILSVRC2015_train_00340000/'
p801
aS'train/ILSVRC2015_VID_train_0001/ILSVRC2015_train_00181008/'
p802
aS'train/ILSVRC2015_VID_train_0001/ILSVRC2015_train_00181004/'
p803
aS'train/ILSVRC2015_VID_train_0001/ILSVRC2015_train_00265044/'
p804
aS'train/ILSVRC2015_VID_train_0001/ILSVRC2015_train_00181011/'
p805
aS'train/ILSVRC2015_VID_train_0001/ILSVRC2015_train_00319000/'
p806
aS'train/ILSVRC2015_VID_train_0001/ILSVRC2015_train_00225001/'
p807
aS'train/ILSVRC2015_VID_train_0001/ILSVRC2015_train_00265049/'
p808
aS'train/ILSVRC2015_VID_train_0001/ILSVRC2015_train_00150011/'
p809
aS'train/ILSVRC2015_VID_train_0001/ILSVRC2015_train_00302028/'
p810
aS'train/ILSVRC2015_VID_train_0001/ILSVRC2015_train_00187008/'
p811
aS'train/ILSVRC2015_VID_train_0001/ILSVRC2015_train_00302001/'
p812
aS'train/ILSVRC2015_VID_train_0001/ILSVRC2015_train_00259022/'
p813
aS'train/ILSVRC2015_VID_train_0001/ILSVRC2015_train_00250019/'
p814
aS'train/ILSVRC2015_VID_train_0001/ILSVRC2015_train_00209011/'
p815
aS'train/ILSVRC2015_VID_train_0001/ILSVRC2015_train_00168002/'
p816
aS'train/ILSVRC2015_VID_train_0001/ILSVRC2015_train_00332000/'
p817
aS'train/ILSVRC2015_VID_train_0001/ILSVRC2015_train_00253018/'
p818
aS'train/ILSVRC2015_VID_train_0001/ILSVRC2015_train_00250013/'
p819
aS'train/ILSVRC2015_VID_train_0001/ILSVRC2015_train_00253034/'
p820
aS'train/ILSVRC2015_VID_train_0001/ILSVRC2015_train_00287001/'
p821
aS'train/ILSVRC2015_VID_train_0001/ILSVRC2015_train_00177013/'
p822
aS'train/ILSVRC2015_VID_train_0001/ILSVRC2015_train_00265039/'
p823
aS'train/ILSVRC2015_VID_train_0001/ILSVRC2015_train_00253025/'
p824
aS'train/ILSVRC2015_VID_train_0001/ILSVRC2015_train_00161005/'
p825
aS'train/ILSVRC2015_VID_train_0001/ILSVRC2015_train_00150019/'
p826
aS'train/ILSVRC2015_VID_train_0001/ILSVRC2015_train_00265029/'
p827
aS'train/ILSVRC2015_VID_train_0001/ILSVRC2015_train_00187005/'
p828
aS'train/ILSVRC2015_VID_train_0001/ILSVRC2015_train_00240015/'
p829
aS'train/ILSVRC2015_VID_train_0001/ILSVRC2015_train_00265020/'
p830
aS'train/ILSVRC2015_VID_train_0001/ILSVRC2015_train_00150020/'
p831
aS'train/ILSVRC2015_VID_train_0001/ILSVRC2015_train_00293000/'
p832
aS'train/ILSVRC2015_VID_train_0001/ILSVRC2015_train_00250008/'
p833
aS'train/ILSVRC2015_VID_train_0001/ILSVRC2015_train_00259030/'
p834
aS'train/ILSVRC2015_VID_train_0001/ILSVRC2015_train_00150013/'
p835
aS'train/ILSVRC2015_VID_train_0001/ILSVRC2015_train_00256005/'
p836
aS'train/ILSVRC2015_VID_train_0001/ILSVRC2015_train_00253014/'
p837
aS'train/ILSVRC2015_VID_train_0001/ILSVRC2015_train_00253002/'
p838
aS'train/ILSVRC2015_VID_train_0001/ILSVRC2015_train_00177002/'
p839
aS'train/ILSVRC2015_VID_train_0001/ILSVRC2015_train_00177012/'
p840
aS'train/ILSVRC2015_VID_train_0001/ILSVRC2015_train_00291001/'
p841
aS'train/ILSVRC2015_VID_train_0001/ILSVRC2015_train_00302023/'
p842
aS'train/ILSVRC2015_VID_train_0001/ILSVRC2015_train_00301019/'
p843
aS'train/ILSVRC2015_VID_train_0001/ILSVRC2015_train_00259031/'
p844
aS'train/ILSVRC2015_VID_train_0001/ILSVRC2015_train_00181013/'
p845
aS'train/ILSVRC2015_VID_train_0001/ILSVRC2015_train_00157000/'
p846
aS'train/ILSVRC2015_VID_train_0001/ILSVRC2015_train_00291002/'
p847
aS'train/ILSVRC2015_VID_train_0001/ILSVRC2015_train_00168011/'
p848
aS'train/ILSVRC2015_VID_train_0001/ILSVRC2015_train_00150018/'
p849
aS'train/ILSVRC2015_VID_train_0001/ILSVRC2015_train_00302012/'
p850
aS'train/ILSVRC2015_VID_train_0001/ILSVRC2015_train_00235007/'
p851
aS'train/ILSVRC2015_VID_train_0001/ILSVRC2015_train_00259000/'
p852
aS'train/ILSVRC2015_VID_train_0001/ILSVRC2015_train_00339001/'
p853
aS'train/ILSVRC2015_VID_train_0001/ILSVRC2015_train_00253030/'
p854
aS'train/ILSVRC2015_VID_train_0001/ILSVRC2015_train_00253022/'
p855
aS'train/ILSVRC2015_VID_train_0001/ILSVRC2015_train_00253035/'
p856
aS'train/ILSVRC2015_VID_train_0001/ILSVRC2015_train_00161004/'
p857
aS'train/ILSVRC2015_VID_train_0001/ILSVRC2015_train_00302014/'
p858
aS'train/ILSVRC2015_VID_train_0001/ILSVRC2015_train_00253004/'
p859
aS'train/ILSVRC2015_VID_train_0001/ILSVRC2015_train_00302000/'
p860
aS'train/ILSVRC2015_VID_train_0001/ILSVRC2015_train_00290013/'
p861
aS'train/ILSVRC2015_VID_train_0001/ILSVRC2015_train_00168003/'
p862
aS'train/ILSVRC2015_VID_train_0001/ILSVRC2015_train_00215001/'
p863
aS'train/ILSVRC2015_VID_train_0001/ILSVRC2015_train_00259010/'
p864
aS'train/ILSVRC2015_VID_train_0001/ILSVRC2015_train_00302025/'
p865
aS'train/ILSVRC2015_VID_train_0001/ILSVRC2015_train_00150021/'
p866
aS'train/ILSVRC2015_VID_train_0001/ILSVRC2015_train_00265028/'
p867
aS'train/ILSVRC2015_VID_train_0001/ILSVRC2015_train_00177006/'
p868
aS'train/ILSVRC2015_VID_train_0001/ILSVRC2015_train_00290022/'
p869
aS'train/ILSVRC2015_VID_train_0001/ILSVRC2015_train_00265018/'
p870
aS'train/ILSVRC2015_VID_train_0001/ILSVRC2015_train_00240006/'
p871
aS'train/ILSVRC2015_VID_train_0001/ILSVRC2015_train_00308010/'
p872
aS'train/ILSVRC2015_VID_train_0001/ILSVRC2015_train_00272031/'
p873
aS'train/ILSVRC2015_VID_train_0001/ILSVRC2015_train_00150014/'
p874
aS'train/ILSVRC2015_VID_train_0001/ILSVRC2015_train_00265025/'
p875
aS'train/ILSVRC2015_VID_train_0001/ILSVRC2015_train_00185000/'
p876
aS'train/ILSVRC2015_VID_train_0001/ILSVRC2015_train_00301001/'
p877
aS'train/ILSVRC2015_VID_train_0001/ILSVRC2015_train_00188000/'
p878
aS'train/ILSVRC2015_VID_train_0001/ILSVRC2015_train_00302004/'
p879
aS'train/ILSVRC2015_VID_train_0001/ILSVRC2015_train_00301020/'
p880
aS'train/ILSVRC2015_VID_train_0001/ILSVRC2015_train_00272034/'
p881
aS'train/ILSVRC2015_VID_train_0001/ILSVRC2015_train_00265068/'
p882
aS'train/ILSVRC2015_VID_train_0001/ILSVRC2015_train_00265046/'
p883
aS'train/ILSVRC2015_VID_train_0001/ILSVRC2015_train_00282000/'
p884
aS'train/ILSVRC2015_VID_train_0001/ILSVRC2015_train_00259013/'
p885
aS'train/ILSVRC2015_VID_train_0001/ILSVRC2015_train_00259012/'
p886
aS'train/ILSVRC2015_VID_train_0001/ILSVRC2015_train_00272010/'
p887
aS'train/ILSVRC2015_VID_train_0001/ILSVRC2015_train_00240012/'
p888
aS'train/ILSVRC2015_VID_train_0001/ILSVRC2015_train_00235006/'
p889
aS'train/ILSVRC2015_VID_train_0001/ILSVRC2015_train_00240003/'
p890
aS'train/ILSVRC2015_VID_train_0001/ILSVRC2015_train_00301006/'
p891
aS'train/ILSVRC2015_VID_train_0001/ILSVRC2015_train_00197000/'
p892
aS'train/ILSVRC2015_VID_train_0001/ILSVRC2015_train_00259017/'
p893
aS'train/ILSVRC2015_VID_train_0001/ILSVRC2015_train_00301018/'
p894
aS'train/ILSVRC2015_VID_train_0001/ILSVRC2015_train_00253000/'
p895
aS'train/ILSVRC2015_VID_train_0001/ILSVRC2015_train_00302022/'
p896
aS'train/ILSVRC2015_VID_train_0001/ILSVRC2015_train_00302024/'
p897
aS'train/ILSVRC2015_VID_train_0001/ILSVRC2015_train_00290001/'
p898
aS'train/ILSVRC2015_VID_train_0001/ILSVRC2015_train_00265059/'
p899
aS'train/ILSVRC2015_VID_train_0001/ILSVRC2015_train_00272017/'
p900
aS'train/ILSVRC2015_VID_train_0001/ILSVRC2015_train_00240010/'
p901
aS'train/ILSVRC2015_VID_train_0001/ILSVRC2015_train_00250012/'
p902
aS'train/ILSVRC2015_VID_train_0001/ILSVRC2015_train_00212000/'
p903
aS'train/ILSVRC2015_VID_train_0001/ILSVRC2015_train_00302008/'
p904
aS'train/ILSVRC2015_VID_train_0001/ILSVRC2015_train_00265031/'
p905
aS'train/ILSVRC2015_VID_train_0001/ILSVRC2015_train_00150004/'
p906
aS'train/ILSVRC2015_VID_train_0001/ILSVRC2015_train_00272004/'
p907
aS'train/ILSVRC2015_VID_train_0001/ILSVRC2015_train_00265040/'
p908
aS'train/ILSVRC2015_VID_train_0001/ILSVRC2015_train_00253001/'
p909
aS'train/ILSVRC2015_VID_train_0001/ILSVRC2015_train_00215009/'
p910
aS'train/ILSVRC2015_VID_train_0001/ILSVRC2015_train_00253024/'
p911
aS'train/ILSVRC2015_VID_train_0001/ILSVRC2015_train_00209010/'
p912
aS'train/ILSVRC2015_VID_train_0001/ILSVRC2015_train_00272025/'
p913
aS'train/ILSVRC2015_VID_train_0001/ILSVRC2015_train_00301009/'
p914
aS'train/ILSVRC2015_VID_train_0001/ILSVRC2015_train_00240005/'
p915
aS'train/ILSVRC2015_VID_train_0001/ILSVRC2015_train_00302006/'
p916
aS'train/ILSVRC2015_VID_train_0001/ILSVRC2015_train_00250004/'
p917
aS'train/ILSVRC2015_VID_train_0001/ILSVRC2015_train_00272007/'
p918
aS'train/ILSVRC2015_VID_train_0001/ILSVRC2015_train_00168006/'
p919
aS'train/ILSVRC2015_VID_train_0001/ILSVRC2015_train_00308011/'
p920
aS'train/ILSVRC2015_VID_train_0001/ILSVRC2015_train_00272020/'
p921
aS'train/ILSVRC2015_VID_train_0001/ILSVRC2015_train_00170000/'
p922
aS'train/ILSVRC2015_VID_train_0001/ILSVRC2015_train_00287002/'
p923
aS'train/ILSVRC2015_VID_train_0001/ILSVRC2015_train_00209001/'
p924
aS'train/ILSVRC2015_VID_train_0001/ILSVRC2015_train_00240002/'
p925
aS'train/ILSVRC2015_VID_train_0001/ILSVRC2015_train_00301005/'
p926
aS'train/ILSVRC2015_VID_train_0001/ILSVRC2015_train_00161002/'
p927
aS'train/ILSVRC2015_VID_train_0001/ILSVRC2015_train_00316000/'
p928
aS'train/ILSVRC2015_VID_train_0001/ILSVRC2015_train_00290014/'
p929
aS'train/ILSVRC2015_VID_train_0001/ILSVRC2015_train_00272018/'
p930
aS'train/ILSVRC2015_VID_train_0001/ILSVRC2015_train_00265001/'
p931
aS'train/ILSVRC2015_VID_train_0001/ILSVRC2015_train_00259029/'
p932
aS'train/ILSVRC2015_VID_train_0001/ILSVRC2015_train_00272014/'
p933
aS'train/ILSVRC2015_VID_train_0001/ILSVRC2015_train_00321003/'
p934
aS'train/ILSVRC2015_VID_train_0001/ILSVRC2015_train_00161007/'
p935
aS'train/ILSVRC2015_VID_train_0001/ILSVRC2015_train_00176000/'
p936
aS'train/ILSVRC2015_VID_train_0001/ILSVRC2015_train_00308003/'
p937
aS'train/ILSVRC2015_VID_train_0001/ILSVRC2015_train_00177010/'
p938
aS'train/ILSVRC2015_VID_train_0001/ILSVRC2015_train_00256012/'
p939
aS'train/ILSVRC2015_VID_train_0001/ILSVRC2015_train_00272022/'
p940
aS'train/ILSVRC2015_VID_train_0001/ILSVRC2015_train_00290003/'
p941
aS'train/ILSVRC2015_VID_train_0001/ILSVRC2015_train_00253006/'
p942
aS'train/ILSVRC2015_VID_train_0001/ILSVRC2015_train_00184003/'
p943
aS'train/ILSVRC2015_VID_train_0001/ILSVRC2015_train_00339003/'
p944
aS'train/ILSVRC2015_VID_train_0001/ILSVRC2015_train_00308022/'
p945
aS'train/ILSVRC2015_VID_train_0001/ILSVRC2015_train_00272024/'
p946
aS'train/ILSVRC2015_VID_train_0001/ILSVRC2015_train_00215003/'
p947
aS'train/ILSVRC2015_VID_train_0001/ILSVRC2015_train_00302015/'
p948
aS'train/ILSVRC2015_VID_train_0001/ILSVRC2015_train_00150006/'
p949
aS'train/ILSVRC2015_VID_train_0001/ILSVRC2015_train_00215004/'
p950
aS'train/ILSVRC2015_VID_train_0001/ILSVRC2015_train_00253007/'
p951
aS'train/ILSVRC2015_VID_train_0001/ILSVRC2015_train_00293002/'
p952
aS'train/ILSVRC2015_VID_train_0001/ILSVRC2015_train_00253023/'
p953
aS'train/ILSVRC2015_VID_train_0001/ILSVRC2015_train_00265021/'
p954
aS'train/ILSVRC2015_VID_train_0001/ILSVRC2015_train_00215006/'
p955
aS'train/ILSVRC2015_VID_train_0001/ILSVRC2015_train_00301017/'
p956
aS'train/ILSVRC2015_VID_train_0001/ILSVRC2015_train_00327000/'
p957
aS'train/ILSVRC2015_VID_train_0001/ILSVRC2015_train_00253020/'
p958
aS'train/ILSVRC2015_VID_train_0001/ILSVRC2015_train_00181001/'
p959
aS'train/ILSVRC2015_VID_train_0001/ILSVRC2015_train_00265019/'
p960
aS'train/ILSVRC2015_VID_train_0001/ILSVRC2015_train_00290002/'
p961
aS'train/ILSVRC2015_VID_train_0001/ILSVRC2015_train_00147000/'
p962
aS'train/ILSVRC2015_VID_train_0001/ILSVRC2015_train_00302017/'
p963
aS'train/ILSVRC2015_VID_train_0001/ILSVRC2015_train_00273001/'
p964
aS'train/ILSVRC2015_VID_train_0001/ILSVRC2015_train_00272005/'
p965
aS'train/ILSVRC2015_VID_train_0001/ILSVRC2015_train_00259018/'
p966
aS'train/ILSVRC2015_VID_train_0001/ILSVRC2015_train_00235008/'
p967
aS'train/ILSVRC2015_VID_train_0001/ILSVRC2015_train_00225000/'
p968
aS'train/ILSVRC2015_VID_train_0001/ILSVRC2015_train_00265053/'
p969
aS'train/ILSVRC2015_VID_train_0001/ILSVRC2015_train_00181006/'
p970
aS'train/ILSVRC2015_VID_train_0001/ILSVRC2015_train_00150007/'
p971
aS'train/ILSVRC2015_VID_train_0001/ILSVRC2015_train_00256006/'
p972
aS'train/ILSVRC2015_VID_train_0001/ILSVRC2015_train_00265069/'
p973
aS'train/ILSVRC2015_VID_train_0001/ILSVRC2015_train_00265015/'
p974
aS'train/ILSVRC2015_VID_train_0001/ILSVRC2015_train_00250016/'
p975
aS'train/ILSVRC2015_VID_train_0001/ILSVRC2015_train_00265060/'
p976
aS'train/ILSVRC2015_VID_train_0001/ILSVRC2015_train_00184001/'
p977
aS'train/ILSVRC2015_VID_train_0001/ILSVRC2015_train_00187004/'
p978
aS'train/ILSVRC2015_VID_train_0001/ILSVRC2015_train_00181002/'
p979
aS'train/ILSVRC2015_VID_train_0001/ILSVRC2015_train_00302003/'
p980
aS'train/ILSVRC2015_VID_train_0001/ILSVRC2015_train_00308023/'
p981
aS'train/ILSVRC2015_VID_train_0001/ILSVRC2015_train_00265072/'
p982
aS'train/ILSVRC2015_VID_train_0001/ILSVRC2015_train_00328000/'
p983
aS'train/ILSVRC2015_VID_train_0001/ILSVRC2015_train_00302010/'
p984
aS'train/ILSVRC2015_VID_train_0001/ILSVRC2015_train_00194007/'
p985
aS'train/ILSVRC2015_VID_train_0001/ILSVRC2015_train_00187009/'
p986
aS'train/ILSVRC2015_VID_train_0001/ILSVRC2015_train_00265055/'
p987
aS'train/ILSVRC2015_VID_train_0001/ILSVRC2015_train_00301002/'
p988
aS'train/ILSVRC2015_VID_train_0001/ILSVRC2015_train_00290019/'
p989
aS'train/ILSVRC2015_VID_train_0001/ILSVRC2015_train_00161015/'
p990
aS'train/ILSVRC2015_VID_train_0001/ILSVRC2015_train_00184002/'
p991
aS'train/ILSVRC2015_VID_train_0001/ILSVRC2015_train_00272016/'
p992
aS'train/ILSVRC2015_VID_train_0001/ILSVRC2015_train_00177011/'
p993
aS'train/ILSVRC2015_VID_train_0001/ILSVRC2015_train_00194004/'
p994
aS'train/ILSVRC2015_VID_train_0001/ILSVRC2015_train_00302002/'
p995
aS'train/ILSVRC2015_VID_train_0001/ILSVRC2015_train_00265056/'
p996
aS'train/ILSVRC2015_VID_train_0001/ILSVRC2015_train_00265052/'
p997
aS'train/ILSVRC2015_VID_train_0001/ILSVRC2015_train_00265009/'
p998
aS'train/ILSVRC2015_VID_train_0001/ILSVRC2015_train_00321000/'
p999
aS'train/ILSVRC2015_VID_train_0001/ILSVRC2015_train_00259026/'
p1000
aS'train/ILSVRC2015_VID_train_0001/ILSVRC2015_train_00177007/'
p1001
aS'train/ILSVRC2015_VID_train_0001/ILSVRC2015_train_00209007/'
p1002
aS'train/ILSVRC2015_VID_train_0001/ILSVRC2015_train_00324000/'
p1003
aS'train/ILSVRC2015_VID_train_0001/ILSVRC2015_train_00265063/'
p1004
aS'train/ILSVRC2015_VID_train_0001/ILSVRC2015_train_00194006/'
p1005
aS'train/ILSVRC2015_VID_train_0001/ILSVRC2015_train_00324001/'
p1006
aS'train/ILSVRC2015_VID_train_0001/ILSVRC2015_train_00272032/'
p1007
aS'train/ILSVRC2015_VID_train_0001/ILSVRC2015_train_00250014/'
p1008
aS'train/ILSVRC2015_VID_train_0001/ILSVRC2015_train_00259024/'
p1009
aS'train/ILSVRC2015_VID_train_0001/ILSVRC2015_train_00265023/'
p1010
aS'train/ILSVRC2015_VID_train_0001/ILSVRC2015_train_00290007/'
p1011
aS'train/ILSVRC2015_VID_train_0001/ILSVRC2015_train_00308013/'
p1012
aS'train/ILSVRC2015_VID_train_0001/ILSVRC2015_train_00301008/'
p1013
aS'train/ILSVRC2015_VID_train_0001/ILSVRC2015_train_00302005/'
p1014
aS'train/ILSVRC2015_VID_train_0001/ILSVRC2015_train_00305000/'
p1015
aS'train/ILSVRC2015_VID_train_0001/ILSVRC2015_train_00168005/'
p1016
aS'train/ILSVRC2015_VID_train_0001/ILSVRC2015_train_00272026/'
p1017
aS'train/ILSVRC2015_VID_train_0001/ILSVRC2015_train_00290016/'
p1018
aS'train/ILSVRC2015_VID_train_0001/ILSVRC2015_train_00290010/'
p1019
aS'train/ILSVRC2015_VID_train_0001/ILSVRC2015_train_00256011/'
p1020
aS'train/ILSVRC2015_VID_train_0001/ILSVRC2015_train_00308014/'
p1021
aS'train/ILSVRC2015_VID_train_0001/ILSVRC2015_train_00272003/'
p1022
aS'train/ILSVRC2015_VID_train_0001/ILSVRC2015_train_00301023/'
p1023
aS'train/ILSVRC2015_VID_train_0001/ILSVRC2015_train_00308008/'
p1024
aS'train/ILSVRC2015_VID_train_0001/ILSVRC2015_train_00253008/'
p1025
aS'train/ILSVRC2015_VID_train_0001/ILSVRC2015_train_00150009/'
p1026
aS'train/ILSVRC2015_VID_train_0001/ILSVRC2015_train_00287000/'
p1027
aS'train/ILSVRC2015_VID_train_0001/ILSVRC2015_train_00265074/'
p1028
aS'train/ILSVRC2015_VID_train_0001/ILSVRC2015_train_00209004/'
p1029
aS'train/ILSVRC2015_VID_train_0001/ILSVRC2015_train_00330000/'
p1030
aS'train/ILSVRC2015_VID_train_0001/ILSVRC2015_train_00176008/'
p1031
aS'train/ILSVRC2015_VID_train_0001/ILSVRC2015_train_00250011/'
p1032
aS'train/ILSVRC2015_VID_train_0001/ILSVRC2015_train_00290008/'
p1033
aS'train/ILSVRC2015_VID_train_0001/ILSVRC2015_train_00161000/'
p1034
aS'train/ILSVRC2015_VID_train_0001/ILSVRC2015_train_00293006/'
p1035
aS'train/ILSVRC2015_VID_train_0001/ILSVRC2015_train_00265004/'
p1036
aS'train/ILSVRC2015_VID_train_0001/ILSVRC2015_train_00272009/'
p1037
aS'train/ILSVRC2015_VID_train_0001/ILSVRC2015_train_00177015/'
p1038
aS'train/ILSVRC2015_VID_train_0001/ILSVRC2015_train_00253009/'
p1039
aS'train/ILSVRC2015_VID_train_0001/ILSVRC2015_train_00150005/'
p1040
aS'train/ILSVRC2015_VID_train_0001/ILSVRC2015_train_00265024/'
p1041
aS'train/ILSVRC2015_VID_train_0001/ILSVRC2015_train_00339000/'
p1042
aS'train/ILSVRC2015_VID_train_0001/ILSVRC2015_train_00181012/'
p1043
aS'train/ILSVRC2015_VID_train_0001/ILSVRC2015_train_00265067/'
p1044
aS'train/ILSVRC2015_VID_train_0001/ILSVRC2015_train_00209009/'
p1045
aS'train/ILSVRC2015_VID_train_0001/ILSVRC2015_train_00235005/'
p1046
aS'train/ILSVRC2015_VID_train_0001/ILSVRC2015_train_00150010/'
p1047
aS'train/ILSVRC2015_VID_train_0001/ILSVRC2015_train_00161010/'
p1048
aS'train/ILSVRC2015_VID_train_0001/ILSVRC2015_train_00259009/'
p1049
aS'train/ILSVRC2015_VID_train_0001/ILSVRC2015_train_00240007/'
p1050
aS'train/ILSVRC2015_VID_train_0001/ILSVRC2015_train_00250017/'
p1051
aS'train/ILSVRC2015_VID_train_0001/ILSVRC2015_train_00272023/'
p1052
aS'train/ILSVRC2015_VID_train_0001/ILSVRC2015_train_00301013/'
p1053
aS'train/ILSVRC2015_VID_train_0001/ILSVRC2015_train_00150016/'
p1054
aS'train/ILSVRC2015_VID_train_0001/ILSVRC2015_train_00214001/'
p1055
aS'train/ILSVRC2015_VID_train_0001/ILSVRC2015_train_00187000/'
p1056
aS'train/ILSVRC2015_VID_train_0001/ILSVRC2015_train_00240004/'
p1057
aS'train/ILSVRC2015_VID_train_0001/ILSVRC2015_train_00272029/'
p1058
aS'train/ILSVRC2015_VID_train_0001/ILSVRC2015_train_00150000/'
p1059
aS'train/ILSVRC2015_VID_train_0001/ILSVRC2015_train_00256003/'
p1060
aS'train/ILSVRC2015_VID_train_0001/ILSVRC2015_train_00181003/'
p1061
aS'train/ILSVRC2015_VID_train_0001/ILSVRC2015_train_00291000/'
p1062
aS'train/ILSVRC2015_VID_train_0001/ILSVRC2015_train_00209003/'
p1063
aS'train/ILSVRC2015_VID_train_0001/ILSVRC2015_train_00253032/'
p1064
aS'train/ILSVRC2015_VID_train_0001/ILSVRC2015_train_00161006/'
p1065
aS'train/ILSVRC2015_VID_train_0001/ILSVRC2015_train_00253031/'
p1066
aS'train/ILSVRC2015_VID_train_0001/ILSVRC2015_train_00308005/'
p1067
aS'train/ILSVRC2015_VID_train_0001/ILSVRC2015_train_00214000/'
p1068
aS'train/ILSVRC2015_VID_train_0001/ILSVRC2015_train_00250018/'
p1069
aS'train/ILSVRC2015_VID_train_0001/ILSVRC2015_train_00240011/'
p1070
aS'train/ILSVRC2015_VID_train_0001/ILSVRC2015_train_00321002/'
p1071
aS'train/ILSVRC2015_VID_train_0001/ILSVRC2015_train_00265026/'
p1072
aS'train/ILSVRC2015_VID_train_0001/ILSVRC2015_train_00253019/'
p1073
aS'train/ILSVRC2015_VID_train_0001/ILSVRC2015_train_00250001/'
p1074
aS'train/ILSVRC2015_VID_train_0001/ILSVRC2015_train_00253010/'
p1075
aS'train/ILSVRC2015_VID_train_0001/ILSVRC2015_train_00176006/'
p1076
aS'train/ILSVRC2015_VID_train_0001/ILSVRC2015_train_00250005/'
p1077
aS'train/ILSVRC2015_VID_train_0001/ILSVRC2015_train_00265036/'
p1078
aS'train/ILSVRC2015_VID_train_0001/ILSVRC2015_train_00272019/'
p1079
aS'train/ILSVRC2015_VID_train_0001/ILSVRC2015_train_00235004/'
p1080
aS'train/ILSVRC2015_VID_train_0001/ILSVRC2015_train_00187007/'
p1081
aS'train/ILSVRC2015_VID_train_0001/ILSVRC2015_train_00265061/'
p1082
aS'train/ILSVRC2015_VID_train_0001/ILSVRC2015_train_00259005/'
p1083
aS'train/ILSVRC2015_VID_train_0001/ILSVRC2015_train_00265002/'
p1084
aS'train/ILSVRC2015_VID_train_0001/ILSVRC2015_train_00161017/'
p1085
aS'train/ILSVRC2015_VID_train_0001/ILSVRC2015_train_00290020/'
p1086
aS'train/ILSVRC2015_VID_train_0001/ILSVRC2015_train_00290000/'
p1087
aS'train/ILSVRC2015_VID_train_0001/ILSVRC2015_train_00265035/'
p1088
aS'train/ILSVRC2015_VID_train_0001/ILSVRC2015_train_00177003/'
p1089
aS'train/ILSVRC2015_VID_train_0001/ILSVRC2015_train_00302020/'
p1090
aS'train/ILSVRC2015_VID_train_0001/ILSVRC2015_train_00176004/'
p1091
aS'train/ILSVRC2015_VID_train_0001/ILSVRC2015_train_00256008/'
p1092
aS'train/ILSVRC2015_VID_train_0001/ILSVRC2015_train_00184005/'
p1093
aS'train/ILSVRC2015_VID_train_0001/ILSVRC2015_train_00168004/'
p1094
aS'train/ILSVRC2015_VID_train_0001/ILSVRC2015_train_00194009/'
p1095
aS'train/ILSVRC2015_VID_train_0001/ILSVRC2015_train_00194008/'
p1096
aS'train/ILSVRC2015_VID_train_0001/ILSVRC2015_train_00290012/'
p1097
aS'train/ILSVRC2015_VID_train_0001/ILSVRC2015_train_00256004/'
p1098
aS'train/ILSVRC2015_VID_train_0001/ILSVRC2015_train_00187006/'
p1099
aS'train/ILSVRC2015_VID_train_0001/ILSVRC2015_train_00259020/'
p1100
aS'train/ILSVRC2015_VID_train_0001/ILSVRC2015_train_00256001/'
p1101
aS'train/ILSVRC2015_VID_train_0001/ILSVRC2015_train_00302021/'
p1102
aS'train/ILSVRC2015_VID_train_0001/ILSVRC2015_train_00187003/'
p1103
aS'train/ILSVRC2015_VID_train_0001/ILSVRC2015_train_00215005/'
p1104
aS'train/ILSVRC2015_VID_train_0001/ILSVRC2015_train_00265017/'
p1105
aS'train/ILSVRC2015_VID_train_0001/ILSVRC2015_train_00293004/'
p1106
aS'train/ILSVRC2015_VID_train_0001/ILSVRC2015_train_00253026/'
p1107
aS'train/ILSVRC2015_VID_train_0001/ILSVRC2015_train_00168008/'
p1108
aS'train/ILSVRC2015_VID_train_0001/ILSVRC2015_train_00265032/'
p1109
aS'train/ILSVRC2015_VID_train_0001/ILSVRC2015_train_00209002/'
p1110
aS'train/ILSVRC2015_VID_train_0001/ILSVRC2015_train_00259021/'
p1111
aS'train/ILSVRC2015_VID_train_0001/ILSVRC2015_train_00331000/'
p1112
aS'train/ILSVRC2015_VID_train_0001/ILSVRC2015_train_00265006/'
p1113
aS'train/ILSVRC2015_VID_train_0001/ILSVRC2015_train_00290023/'
p1114
aS'train/ILSVRC2015_VID_train_0001/ILSVRC2015_train_00150015/'
p1115
aS'train/ILSVRC2015_VID_train_0001/ILSVRC2015_train_00187002/'
p1116
aS'train/ILSVRC2015_VID_train_0001/ILSVRC2015_train_00250006/'
p1117
aS'train/ILSVRC2015_VID_train_0001/ILSVRC2015_train_00308006/'
p1118
aS'train/ILSVRC2015_VID_train_0001/ILSVRC2015_train_00240014/'
p1119
aS'train/ILSVRC2015_VID_train_0001/ILSVRC2015_train_00240008/'
p1120
aS'train/ILSVRC2015_VID_train_0001/ILSVRC2015_train_00209006/'
p1121
aS'train/ILSVRC2015_VID_train_0001/ILSVRC2015_train_00272021/'
p1122
aS'train/ILSVRC2015_VID_train_0001/ILSVRC2015_train_00161008/'
p1123
aS'train/ILSVRC2015_VID_train_0001/ILSVRC2015_train_00290011/'
p1124
aS'train/ILSVRC2015_VID_train_0001/ILSVRC2015_train_00181010/'
p1125
aS'train/ILSVRC2015_VID_train_0001/ILSVRC2015_train_00325000/'
p1126
aS'train/ILSVRC2015_VID_train_0001/ILSVRC2015_train_00265038/'
p1127
aS'train/ILSVRC2015_VID_train_0001/ILSVRC2015_train_00308017/'
p1128
aS'train/ILSVRC2015_VID_train_0001/ILSVRC2015_train_00150003/'
p1129
aS'train/ILSVRC2015_VID_train_0001/ILSVRC2015_train_00265016/'
p1130
aS'train/ILSVRC2015_VID_train_0001/ILSVRC2015_train_00215002/'
p1131
aS'train/ILSVRC2015_VID_train_0001/ILSVRC2015_train_00301012/'
p1132
aS'train/ILSVRC2015_VID_train_0001/ILSVRC2015_train_00181007/'
p1133
aS'train/ILSVRC2015_VID_train_0001/ILSVRC2015_train_00180000/'
p1134
aS'train/ILSVRC2015_VID_train_0001/ILSVRC2015_train_00253033/'
p1135
aS'train/ILSVRC2015_VID_train_0001/ILSVRC2015_train_00194001/'
p1136
aS'train/ILSVRC2015_VID_train_0001/ILSVRC2015_train_00240013/'
p1137
aS'train/ILSVRC2015_VID_train_0001/ILSVRC2015_train_00250000/'
p1138
aS'train/ILSVRC2015_VID_train_0001/ILSVRC2015_train_00265000/'
p1139
aS'train/ILSVRC2015_VID_train_0001/ILSVRC2015_train_00161003/'
p1140
aS'train/ILSVRC2015_VID_train_0001/ILSVRC2015_train_00265071/'
p1141
aS'train/ILSVRC2015_VID_train_0001/ILSVRC2015_train_00250002/'
p1142
aS'train/ILSVRC2015_VID_train_0001/ILSVRC2015_train_00240000/'
p1143
aS'train/ILSVRC2015_VID_train_0001/ILSVRC2015_train_00259007/'
p1144
aS'train/ILSVRC2015_VID_train_0001/ILSVRC2015_train_00240009/'
p1145
aS'train/ILSVRC2015_VID_train_0001/ILSVRC2015_train_00259014/'
p1146
aS'train/ILSVRC2015_VID_train_0001/ILSVRC2015_train_00302019/'
p1147
aS'train/ILSVRC2015_VID_train_0001/ILSVRC2015_train_00161009/'
p1148
aS'train/ILSVRC2015_VID_train_0001/ILSVRC2015_train_00301011/'
p1149
aS'train/ILSVRC2015_VID_train_0001/ILSVRC2015_train_00280000/'
p1150
aS'train/ILSVRC2015_VID_train_0001/ILSVRC2015_train_00265005/'
p1151
aS'train/ILSVRC2015_VID_train_0001/ILSVRC2015_train_00259025/'
p1152
aS'train/ILSVRC2015_VID_train_0001/ILSVRC2015_train_00150025/'
p1153
aS'train/ILSVRC2015_VID_train_0001/ILSVRC2015_train_00194002/'
p1154
aS'train/ILSVRC2015_VID_train_0001/ILSVRC2015_train_00259032/'
p1155
aS'train/ILSVRC2015_VID_train_0001/ILSVRC2015_train_00301016/'
p1156
aS'train/ILSVRC2015_VID_train_0001/ILSVRC2015_train_00272012/'
p1157
aS'train/ILSVRC2015_VID_train_0001/ILSVRC2015_train_00302029/'
p1158
aS'train/ILSVRC2015_VID_train_0001/ILSVRC2015_train_00177004/'
p1159
aS'train/ILSVRC2015_VID_train_0001/ILSVRC2015_train_00287003/'
p1160
aS'train/ILSVRC2015_VID_train_0001/ILSVRC2015_train_00308016/'
p1161
aS'train/ILSVRC2015_VID_train_0001/ILSVRC2015_train_00301004/'
p1162
aS'train/ILSVRC2015_VID_train_0001/ILSVRC2015_train_00256007/'
p1163
aS'train/ILSVRC2015_VID_train_0001/ILSVRC2015_train_00168010/'
p1164
aS'train/ILSVRC2015_VID_train_0001/ILSVRC2015_train_00161016/'
p1165
aS'train/ILSVRC2015_VID_train_0001/ILSVRC2015_train_00272030/'
p1166
aS'train/ILSVRC2015_VID_train_0001/ILSVRC2015_train_00176007/'
p1167
aS'train/ILSVRC2015_VID_train_0001/ILSVRC2015_train_00209008/'
p1168
aS'train/ILSVRC2015_VID_train_0001/ILSVRC2015_train_00259003/'
p1169
aS'train/ILSVRC2015_VID_train_0001/ILSVRC2015_train_00177005/'
p1170
aS'train/ILSVRC2015_VID_train_0001/ILSVRC2015_train_00150008/'
p1171
aS'train/ILSVRC2015_VID_train_0001/ILSVRC2015_train_00265003/'
p1172
aS'train/ILSVRC2015_VID_train_0001/ILSVRC2015_train_00265066/'
p1173
aS'train/ILSVRC2015_VID_train_0001/ILSVRC2015_train_00265058/'
p1174
aS'train/ILSVRC2015_VID_train_0001/ILSVRC2015_train_00259016/'
p1175
aS'train/ILSVRC2015_VID_train_0001/ILSVRC2015_train_00250020/'
p1176
aS'train/ILSVRC2015_VID_train_0001/ILSVRC2015_train_00150012/'
p1177
aS'train/ILSVRC2015_VID_train_0001/ILSVRC2015_train_00253016/'
p1178
aS'train/ILSVRC2015_VID_train_0001/ILSVRC2015_train_00256010/'
p1179
aS'train/ILSVRC2015_VID_train_0001/ILSVRC2015_train_00273003/'
p1180
aS'train/ILSVRC2015_VID_train_0001/ILSVRC2015_train_00161011/'
p1181
aS'train/ILSVRC2015_VID_train_0001/ILSVRC2015_train_00265022/'
p1182
aS'train/ILSVRC2015_VID_train_0001/ILSVRC2015_train_00250021/'
p1183
aS'train/ILSVRC2015_VID_train_0001/ILSVRC2015_train_00301003/'
p1184
aS'train/ILSVRC2015_VID_train_0001/ILSVRC2015_train_00272011/'
p1185
aS'train/ILSVRC2015_VID_train_0001/ILSVRC2015_train_00150024/'
p1186
aS'train/ILSVRC2015_VID_train_0001/ILSVRC2015_train_00250015/'
p1187
aS'train/ILSVRC2015_VID_train_0001/ILSVRC2015_train_00339002/'
p1188
aS'train/ILSVRC2015_VID_train_0001/ILSVRC2015_train_00187001/'
p1189
aS'train/ILSVRC2015_VID_train_0001/ILSVRC2015_train_00256002/'
p1190
aS'train/ILSVRC2015_VID_train_0001/ILSVRC2015_train_00194003/'
p1191
aS'train/ILSVRC2015_VID_train_0001/ILSVRC2015_train_00177014/'
p1192
aS'train/ILSVRC2015_VID_train_0001/ILSVRC2015_train_00265037/'
p1193
aS'train/ILSVRC2015_VID_train_0001/ILSVRC2015_train_00290015/'
p1194
aS'train/ILSVRC2015_VID_train_0001/ILSVRC2015_train_00265070/'
p1195
aS'train/ILSVRC2015_VID_train_0001/ILSVRC2015_train_00259011/'
p1196
aS'train/ILSVRC2015_VID_train_0001/ILSVRC2015_train_00259008/'
p1197
aS'train/ILSVRC2015_VID_train_0001/ILSVRC2015_train_00308002/'
p1198
aS'train/ILSVRC2015_VID_train_0001/ILSVRC2015_train_00288000/'
p1199
aS'train/ILSVRC2015_VID_train_0001/ILSVRC2015_train_00290018/'
p1200
aS'train/ILSVRC2015_VID_train_0001/ILSVRC2015_train_00308012/'
p1201
aS'train/ILSVRC2015_VID_train_0001/ILSVRC2015_train_00293003/'
p1202
aS'train/ILSVRC2015_VID_train_0001/ILSVRC2015_train_00150022/'
p1203
aS'train/ILSVRC2015_VID_train_0001/ILSVRC2015_train_00259015/'
p1204
aS'train/ILSVRC2015_VID_train_0001/ILSVRC2015_train_00240001/'
p1205
aS'train/ILSVRC2015_VID_train_0001/ILSVRC2015_train_00322001/'
p1206
aS'train/ILSVRC2015_VID_train_0001/ILSVRC2015_train_00265013/'
p1207
aS'train/ILSVRC2015_VID_train_0002/ILSVRC2015_train_00416000/'
p1208
aS'train/ILSVRC2015_VID_train_0002/ILSVRC2015_train_00533004/'
p1209
aS'train/ILSVRC2015_VID_train_0002/ILSVRC2015_train_00495000/'
p1210
aS'train/ILSVRC2015_VID_train_0002/ILSVRC2015_train_00542000/'
p1211
aS'train/ILSVRC2015_VID_train_0002/ILSVRC2015_train_00767000/'
p1212
aS'train/ILSVRC2015_VID_train_0002/ILSVRC2015_train_00409000/'
p1213
aS'train/ILSVRC2015_VID_train_0002/ILSVRC2015_train_00646001/'
p1214
aS'train/ILSVRC2015_VID_train_0002/ILSVRC2015_train_00584000/'
p1215
aS'train/ILSVRC2015_VID_train_0002/ILSVRC2015_train_00488000/'
p1216
aS'train/ILSVRC2015_VID_train_0002/ILSVRC2015_train_00562002/'
p1217
aS'train/ILSVRC2015_VID_train_0002/ILSVRC2015_train_00511000/'
p1218
aS'train/ILSVRC2015_VID_train_0002/ILSVRC2015_train_00743000/'
p1219
aS'train/ILSVRC2015_VID_train_0002/ILSVRC2015_train_00638001/'
p1220
aS'train/ILSVRC2015_VID_train_0002/ILSVRC2015_train_00492000/'
p1221
aS'train/ILSVRC2015_VID_train_0002/ILSVRC2015_train_00661000/'
p1222
aS'train/ILSVRC2015_VID_train_0002/ILSVRC2015_train_00683000/'
p1223
aS'train/ILSVRC2015_VID_train_0002/ILSVRC2015_train_00661003/'
p1224
aS'train/ILSVRC2015_VID_train_0002/ILSVRC2015_train_00564000/'
p1225
aS'train/ILSVRC2015_VID_train_0002/ILSVRC2015_train_00479001/'
p1226
aS'train/ILSVRC2015_VID_train_0002/ILSVRC2015_train_00639000/'
p1227
aS'train/ILSVRC2015_VID_train_0002/ILSVRC2015_train_00473000/'
p1228
aS'train/ILSVRC2015_VID_train_0002/ILSVRC2015_train_00721000/'
p1229
aS'train/ILSVRC2015_VID_train_0002/ILSVRC2015_train_00589000/'
p1230
aS'train/ILSVRC2015_VID_train_0002/ILSVRC2015_train_00368001/'
p1231
aS'train/ILSVRC2015_VID_train_0002/ILSVRC2015_train_00412001/'
p1232
aS'train/ILSVRC2015_VID_train_0002/ILSVRC2015_train_00415005/'
p1233
aS'train/ILSVRC2015_VID_train_0002/ILSVRC2015_train_00354001/'
p1234
aS'train/ILSVRC2015_VID_train_0002/ILSVRC2015_train_00039005/'
p1235
aS'train/ILSVRC2015_VID_train_0002/ILSVRC2015_train_00405000/'
p1236
aS'train/ILSVRC2015_VID_train_0002/ILSVRC2015_train_00626000/'
p1237
aS'train/ILSVRC2015_VID_train_0002/ILSVRC2015_train_00415009/'
p1238
aS'train/ILSVRC2015_VID_train_0002/ILSVRC2015_train_00512000/'
p1239
aS'train/ILSVRC2015_VID_train_0002/ILSVRC2015_train_00695000/'
p1240
aS'train/ILSVRC2015_VID_train_0002/ILSVRC2015_train_00445000/'
p1241
aS'train/ILSVRC2015_VID_train_0002/ILSVRC2015_train_00533003/'
p1242
aS'train/ILSVRC2015_VID_train_0002/ILSVRC2015_train_00449000/'
p1243
aS'train/ILSVRC2015_VID_train_0002/ILSVRC2015_train_00770000/'
p1244
aS'train/ILSVRC2015_VID_train_0002/ILSVRC2015_train_00371007/'
p1245
aS'train/ILSVRC2015_VID_train_0002/ILSVRC2015_train_00398000/'
p1246
aS'train/ILSVRC2015_VID_train_0002/ILSVRC2015_train_00703000/'
p1247
aS'train/ILSVRC2015_VID_train_0002/ILSVRC2015_train_00682003/'
p1248
aS'train/ILSVRC2015_VID_train_0002/ILSVRC2015_train_00379001/'
p1249
aS'train/ILSVRC2015_VID_train_0002/ILSVRC2015_train_00593000/'
p1250
aS'train/ILSVRC2015_VID_train_0002/ILSVRC2015_train_00371012/'
p1251
aS'train/ILSVRC2015_VID_train_0002/ILSVRC2015_train_00477000/'
p1252
aS'train/ILSVRC2015_VID_train_0002/ILSVRC2015_train_00752000/'
p1253
aS'train/ILSVRC2015_VID_train_0002/ILSVRC2015_train_00653000/'
p1254
aS'train/ILSVRC2015_VID_train_0002/ILSVRC2015_train_00673001/'
p1255
aS'train/ILSVRC2015_VID_train_0002/ILSVRC2015_train_00507000/'
p1256
aS'train/ILSVRC2015_VID_train_0002/ILSVRC2015_train_00682000/'
p1257
aS'train/ILSVRC2015_VID_train_0002/ILSVRC2015_train_00684000/'
p1258
aS'train/ILSVRC2015_VID_train_0002/ILSVRC2015_train_00675000/'
p1259
aS'train/ILSVRC2015_VID_train_0002/ILSVRC2015_train_00402001/'
p1260
aS'train/ILSVRC2015_VID_train_0002/ILSVRC2015_train_00482000/'
p1261
aS'train/ILSVRC2015_VID_train_0002/ILSVRC2015_train_00374000/'
p1262
aS'train/ILSVRC2015_VID_train_0002/ILSVRC2015_train_00763000/'
p1263
aS'train/ILSVRC2015_VID_train_0002/ILSVRC2015_train_00553001/'
p1264
aS'train/ILSVRC2015_VID_train_0002/ILSVRC2015_train_00348000/'
p1265
aS'train/ILSVRC2015_VID_train_0002/ILSVRC2015_train_00602000/'
p1266
aS'train/ILSVRC2015_VID_train_0002/ILSVRC2015_train_00371009/'
p1267
aS'train/ILSVRC2015_VID_train_0002/ILSVRC2015_train_00496002/'
p1268
aS'train/ILSVRC2015_VID_train_0002/ILSVRC2015_train_00543000/'
p1269
aS'train/ILSVRC2015_VID_train_0002/ILSVRC2015_train_00738000/'
p1270
aS'train/ILSVRC2015_VID_train_0002/ILSVRC2015_train_00398002/'
p1271
aS'train/ILSVRC2015_VID_train_0002/ILSVRC2015_train_00649000/'
p1272
aS'train/ILSVRC2015_VID_train_0002/ILSVRC2015_train_00591001/'
p1273
aS'train/ILSVRC2015_VID_train_0002/ILSVRC2015_train_00490000/'
p1274
aS'train/ILSVRC2015_VID_train_0002/ILSVRC2015_train_00527006/'
p1275
aS'train/ILSVRC2015_VID_train_0002/ILSVRC2015_train_00371013/'
p1276
aS'train/ILSVRC2015_VID_train_0002/ILSVRC2015_train_00646003/'
p1277
aS'train/ILSVRC2015_VID_train_0002/ILSVRC2015_train_00753001/'
p1278
aS'train/ILSVRC2015_VID_train_0002/ILSVRC2015_train_00658000/'
p1279
aS'train/ILSVRC2015_VID_train_0002/ILSVRC2015_train_00681000/'
p1280
aS'train/ILSVRC2015_VID_train_0002/ILSVRC2015_train_00727000/'
p1281
aS'train/ILSVRC2015_VID_train_0002/ILSVRC2015_train_00680000/'
p1282
aS'train/ILSVRC2015_VID_train_0002/ILSVRC2015_train_00483000/'
p1283
aS'train/ILSVRC2015_VID_train_0002/ILSVRC2015_train_00678000/'
p1284
aS'train/ILSVRC2015_VID_train_0002/ILSVRC2015_train_00635000/'
p1285
aS'train/ILSVRC2015_VID_train_0002/ILSVRC2015_train_00360000/'
p1286
aS'train/ILSVRC2015_VID_train_0002/ILSVRC2015_train_00564001/'
p1287
aS'train/ILSVRC2015_VID_train_0002/ILSVRC2015_train_00489000/'
p1288
aS'train/ILSVRC2015_VID_train_0002/ILSVRC2015_train_00526000/'
p1289
aS'train/ILSVRC2015_VID_train_0002/ILSVRC2015_train_00724000/'
p1290
aS'train/ILSVRC2015_VID_train_0002/ILSVRC2015_train_00586000/'
p1291
aS'train/ILSVRC2015_VID_train_0002/ILSVRC2015_train_00550000/'
p1292
aS'train/ILSVRC2015_VID_train_0002/ILSVRC2015_train_00469000/'
p1293
aS'train/ILSVRC2015_VID_train_0002/ILSVRC2015_train_00533002/'
p1294
aS'train/ILSVRC2015_VID_train_0002/ILSVRC2015_train_00628000/'
p1295
aS'train/ILSVRC2015_VID_train_0002/ILSVRC2015_train_00746002/'
p1296
aS'train/ILSVRC2015_VID_train_0002/ILSVRC2015_train_00531000/'
p1297
aS'train/ILSVRC2015_VID_train_0002/ILSVRC2015_train_00510000/'
p1298
aS'train/ILSVRC2015_VID_train_0002/ILSVRC2015_train_00729001/'
p1299
aS'train/ILSVRC2015_VID_train_0002/ILSVRC2015_train_00398004/'
p1300
aS'train/ILSVRC2015_VID_train_0002/ILSVRC2015_train_00694000/'
p1301
aS'train/ILSVRC2015_VID_train_0002/ILSVRC2015_train_00583000/'
p1302
aS'train/ILSVRC2015_VID_train_0002/ILSVRC2015_train_00722000/'
p1303
aS'train/ILSVRC2015_VID_train_0002/ILSVRC2015_train_00650001/'
p1304
aS'train/ILSVRC2015_VID_train_0002/ILSVRC2015_train_00358000/'
p1305
aS'train/ILSVRC2015_VID_train_0002/ILSVRC2015_train_00496000/'
p1306
aS'train/ILSVRC2015_VID_train_0002/ILSVRC2015_train_00682007/'
p1307
aS'train/ILSVRC2015_VID_train_0002/ILSVRC2015_train_00743006/'
p1308
aS'train/ILSVRC2015_VID_train_0002/ILSVRC2015_train_00743003/'
p1309
aS'train/ILSVRC2015_VID_train_0002/ILSVRC2015_train_00646000/'
p1310
aS'train/ILSVRC2015_VID_train_0002/ILSVRC2015_train_00386000/'
p1311
aS'train/ILSVRC2015_VID_train_0002/ILSVRC2015_train_00533000/'
p1312
aS'train/ILSVRC2015_VID_train_0002/ILSVRC2015_train_00624001/'
p1313
aS'train/ILSVRC2015_VID_train_0002/ILSVRC2015_train_00447000/'
p1314
aS'train/ILSVRC2015_VID_train_0002/ILSVRC2015_train_00415008/'
p1315
aS'train/ILSVRC2015_VID_train_0002/ILSVRC2015_train_00527001/'
p1316
aS'train/ILSVRC2015_VID_train_0002/ILSVRC2015_train_00664000/'
p1317
aS'train/ILSVRC2015_VID_train_0002/ILSVRC2015_train_00400000/'
p1318
aS'train/ILSVRC2015_VID_train_0002/ILSVRC2015_train_00533001/'
p1319
aS'train/ILSVRC2015_VID_train_0002/ILSVRC2015_train_00551000/'
p1320
aS'train/ILSVRC2015_VID_train_0002/ILSVRC2015_train_00437000/'
p1321
aS'train/ILSVRC2015_VID_train_0002/ILSVRC2015_train_00672000/'
p1322
aS'train/ILSVRC2015_VID_train_0002/ILSVRC2015_train_00693000/'
p1323
aS'train/ILSVRC2015_VID_train_0002/ILSVRC2015_train_00599000/'
p1324
aS'train/ILSVRC2015_VID_train_0002/ILSVRC2015_train_00535000/'
p1325
aS'train/ILSVRC2015_VID_train_0002/ILSVRC2015_train_00525000/'
p1326
aS'train/ILSVRC2015_VID_train_0002/ILSVRC2015_train_00366001/'
p1327
aS'train/ILSVRC2015_VID_train_0002/ILSVRC2015_train_00736001/'
p1328
aS'train/ILSVRC2015_VID_train_0002/ILSVRC2015_train_00393000/'
p1329
aS'train/ILSVRC2015_VID_train_0002/ILSVRC2015_train_00462000/'
p1330
aS'train/ILSVRC2015_VID_train_0002/ILSVRC2015_train_00548002/'
p1331
aS'train/ILSVRC2015_VID_train_0002/ILSVRC2015_train_00405001/'
p1332
aS'train/ILSVRC2015_VID_train_0002/ILSVRC2015_train_00352000/'
p1333
aS'train/ILSVRC2015_VID_train_0002/ILSVRC2015_train_00411001/'
p1334
aS'train/ILSVRC2015_VID_train_0002/ILSVRC2015_train_00346001/'
p1335
aS'train/ILSVRC2015_VID_train_0002/ILSVRC2015_train_00485000/'
p1336
aS'train/ILSVRC2015_VID_train_0002/ILSVRC2015_train_00470000/'
p1337
aS'train/ILSVRC2015_VID_train_0002/ILSVRC2015_train_00364000/'
p1338
aS'train/ILSVRC2015_VID_train_0002/ILSVRC2015_train_00573001/'
p1339
aS'train/ILSVRC2015_VID_train_0002/ILSVRC2015_train_00560000/'
p1340
aS'train/ILSVRC2015_VID_train_0002/ILSVRC2015_train_00564002/'
p1341
aS'train/ILSVRC2015_VID_train_0002/ILSVRC2015_train_00665000/'
p1342
aS'train/ILSVRC2015_VID_train_0002/ILSVRC2015_train_00731000/'
p1343
aS'train/ILSVRC2015_VID_train_0002/ILSVRC2015_train_00463000/'
p1344
aS'train/ILSVRC2015_VID_train_0002/ILSVRC2015_train_00406000/'
p1345
aS'train/ILSVRC2015_VID_train_0002/ILSVRC2015_train_00555002/'
p1346
aS'train/ILSVRC2015_VID_train_0002/ILSVRC2015_train_00185002/'
p1347
aS'train/ILSVRC2015_VID_train_0002/ILSVRC2015_train_00527008/'
p1348
aS'train/ILSVRC2015_VID_train_0002/ILSVRC2015_train_00608000/'
p1349
aS'train/ILSVRC2015_VID_train_0002/ILSVRC2015_train_00539000/'
p1350
aS'train/ILSVRC2015_VID_train_0002/ILSVRC2015_train_00567000/'
p1351
aS'train/ILSVRC2015_VID_train_0002/ILSVRC2015_train_00596003/'
p1352
aS'train/ILSVRC2015_VID_train_0002/ILSVRC2015_train_00516001/'
p1353
aS'train/ILSVRC2015_VID_train_0002/ILSVRC2015_train_00487000/'
p1354
aS'train/ILSVRC2015_VID_train_0002/ILSVRC2015_train_00357000/'
p1355
aS'train/ILSVRC2015_VID_train_0002/ILSVRC2015_train_00607000/'
p1356
aS'train/ILSVRC2015_VID_train_0002/ILSVRC2015_train_00753000/'
p1357
aS'train/ILSVRC2015_VID_train_0002/ILSVRC2015_train_00708001/'
p1358
aS'train/ILSVRC2015_VID_train_0002/ILSVRC2015_train_00527003/'
p1359
aS'train/ILSVRC2015_VID_train_0002/ILSVRC2015_train_00457000/'
p1360
aS'train/ILSVRC2015_VID_train_0002/ILSVRC2015_train_00491000/'
p1361
aS'train/ILSVRC2015_VID_train_0002/ILSVRC2015_train_00555000/'
p1362
aS'train/ILSVRC2015_VID_train_0002/ILSVRC2015_train_00682005/'
p1363
aS'train/ILSVRC2015_VID_train_0002/ILSVRC2015_train_00726000/'
p1364
aS'train/ILSVRC2015_VID_train_0002/ILSVRC2015_train_00388000/'
p1365
aS'train/ILSVRC2015_VID_train_0002/ILSVRC2015_train_00673000/'
p1366
aS'train/ILSVRC2015_VID_train_0002/ILSVRC2015_train_00364004/'
p1367
aS'train/ILSVRC2015_VID_train_0002/ILSVRC2015_train_00364003/'
p1368
aS'train/ILSVRC2015_VID_train_0002/ILSVRC2015_train_00768002/'
p1369
aS'train/ILSVRC2015_VID_train_0002/ILSVRC2015_train_00039004/'
p1370
aS'train/ILSVRC2015_VID_train_0002/ILSVRC2015_train_00527005/'
p1371
aS'train/ILSVRC2015_VID_train_0002/ILSVRC2015_train_00356000/'
p1372
aS'train/ILSVRC2015_VID_train_0002/ILSVRC2015_train_00728000/'
p1373
aS'train/ILSVRC2015_VID_train_0002/ILSVRC2015_train_00605001/'
p1374
aS'train/ILSVRC2015_VID_train_0002/ILSVRC2015_train_00742001/'
p1375
aS'train/ILSVRC2015_VID_train_0002/ILSVRC2015_train_00696000/'
p1376
aS'train/ILSVRC2015_VID_train_0002/ILSVRC2015_train_00613002/'
p1377
aS'train/ILSVRC2015_VID_train_0002/ILSVRC2015_train_00682010/'
p1378
aS'train/ILSVRC2015_VID_train_0002/ILSVRC2015_train_00668000/'
p1379
aS'train/ILSVRC2015_VID_train_0002/ILSVRC2015_train_00382000/'
p1380
aS'train/ILSVRC2015_VID_train_0002/ILSVRC2015_train_00472000/'
p1381
aS'train/ILSVRC2015_VID_train_0002/ILSVRC2015_train_00765000/'
p1382
aS'train/ILSVRC2015_VID_train_0002/ILSVRC2015_train_00662000/'
p1383
aS'train/ILSVRC2015_VID_train_0002/ILSVRC2015_train_00392001/'
p1384
aS'train/ILSVRC2015_VID_train_0002/ILSVRC2015_train_00672001/'
p1385
aS'train/ILSVRC2015_VID_train_0002/ILSVRC2015_train_00553000/'
p1386
aS'train/ILSVRC2015_VID_train_0002/ILSVRC2015_train_00580000/'
p1387
aS'train/ILSVRC2015_VID_train_0002/ILSVRC2015_train_00596000/'
p1388
aS'train/ILSVRC2015_VID_train_0002/ILSVRC2015_train_00582000/'
p1389
aS'train/ILSVRC2015_VID_train_0002/ILSVRC2015_train_00729002/'
p1390
aS'train/ILSVRC2015_VID_train_0002/ILSVRC2015_train_00431000/'
p1391
aS'train/ILSVRC2015_VID_train_0002/ILSVRC2015_train_00341001/'
p1392
aS'train/ILSVRC2015_VID_train_0002/ILSVRC2015_train_00356002/'
p1393
aS'train/ILSVRC2015_VID_train_0002/ILSVRC2015_train_00746000/'
p1394
aS'train/ILSVRC2015_VID_train_0002/ILSVRC2015_train_00371006/'
p1395
aS'train/ILSVRC2015_VID_train_0002/ILSVRC2015_train_00661004/'
p1396
aS'train/ILSVRC2015_VID_train_0002/ILSVRC2015_train_00527002/'
p1397
aS'train/ILSVRC2015_VID_train_0002/ILSVRC2015_train_00415001/'
p1398
aS'train/ILSVRC2015_VID_train_0002/ILSVRC2015_train_00371002/'
p1399
aS'train/ILSVRC2015_VID_train_0002/ILSVRC2015_train_00715001/'
p1400
aS'train/ILSVRC2015_VID_train_0002/ILSVRC2015_train_00746003/'
p1401
aS'train/ILSVRC2015_VID_train_0002/ILSVRC2015_train_00606000/'
p1402
aS'train/ILSVRC2015_VID_train_0002/ILSVRC2015_train_00419000/'
p1403
aS'train/ILSVRC2015_VID_train_0002/ILSVRC2015_train_00650000/'
p1404
aS'train/ILSVRC2015_VID_train_0002/ILSVRC2015_train_00509000/'
p1405
aS'train/ILSVRC2015_VID_train_0002/ILSVRC2015_train_00652001/'
p1406
aS'train/ILSVRC2015_VID_train_0002/ILSVRC2015_train_00768000/'
p1407
aS'train/ILSVRC2015_VID_train_0002/ILSVRC2015_train_00534000/'
p1408
aS'train/ILSVRC2015_VID_train_0002/ILSVRC2015_train_00673003/'
p1409
aS'train/ILSVRC2015_VID_train_0002/ILSVRC2015_train_00584002/'
p1410
aS'train/ILSVRC2015_VID_train_0002/ILSVRC2015_train_00370000/'
p1411
aS'train/ILSVRC2015_VID_train_0002/ILSVRC2015_train_00368000/'
p1412
aS'train/ILSVRC2015_VID_train_0002/ILSVRC2015_train_00577000/'
p1413
aS'train/ILSVRC2015_VID_train_0002/ILSVRC2015_train_00369001/'
p1414
aS'train/ILSVRC2015_VID_train_0002/ILSVRC2015_train_00378000/'
p1415
aS'train/ILSVRC2015_VID_train_0002/ILSVRC2015_train_00596001/'
p1416
aS'train/ILSVRC2015_VID_train_0002/ILSVRC2015_train_00527007/'
p1417
aS'train/ILSVRC2015_VID_train_0002/ILSVRC2015_train_00655000/'
p1418
aS'train/ILSVRC2015_VID_train_0002/ILSVRC2015_train_00657000/'
p1419
aS'train/ILSVRC2015_VID_train_0002/ILSVRC2015_train_00558000/'
p1420
aS'train/ILSVRC2015_VID_train_0002/ILSVRC2015_train_00354000/'
p1421
aS'train/ILSVRC2015_VID_train_0002/ILSVRC2015_train_00433000/'
p1422
aS'train/ILSVRC2015_VID_train_0002/ILSVRC2015_train_00570000/'
p1423
aS'train/ILSVRC2015_VID_train_0002/ILSVRC2015_train_00556000/'
p1424
aS'train/ILSVRC2015_VID_train_0002/ILSVRC2015_train_00563000/'
p1425
aS'train/ILSVRC2015_VID_train_0002/ILSVRC2015_train_00620000/'
p1426
aS'train/ILSVRC2015_VID_train_0002/ILSVRC2015_train_00372000/'
p1427
aS'train/ILSVRC2015_VID_train_0002/ILSVRC2015_train_00651000/'
p1428
aS'train/ILSVRC2015_VID_train_0002/ILSVRC2015_train_00479003/'
p1429
aS'train/ILSVRC2015_VID_train_0002/ILSVRC2015_train_00584001/'
p1430
aS'train/ILSVRC2015_VID_train_0002/ILSVRC2015_train_00755000/'
p1431
aS'train/ILSVRC2015_VID_train_0002/ILSVRC2015_train_00746001/'
p1432
aS'train/ILSVRC2015_VID_train_0002/ILSVRC2015_train_00426000/'
p1433
aS'train/ILSVRC2015_VID_train_0002/ILSVRC2015_train_00690000/'
p1434
aS'train/ILSVRC2015_VID_train_0002/ILSVRC2015_train_00682004/'
p1435
aS'train/ILSVRC2015_VID_train_0002/ILSVRC2015_train_00474000/'
p1436
aS'train/ILSVRC2015_VID_train_0002/ILSVRC2015_train_00475000/'
p1437
aS'train/ILSVRC2015_VID_train_0002/ILSVRC2015_train_00479000/'
p1438
aS'train/ILSVRC2015_VID_train_0002/ILSVRC2015_train_00729000/'
p1439
aS'train/ILSVRC2015_VID_train_0002/ILSVRC2015_train_00757000/'
p1440
aS'train/ILSVRC2015_VID_train_0002/ILSVRC2015_train_00565000/'
p1441
aS'train/ILSVRC2015_VID_train_0002/ILSVRC2015_train_00466000/'
p1442
aS'train/ILSVRC2015_VID_train_0002/ILSVRC2015_train_00399000/'
p1443
aS'train/ILSVRC2015_VID_train_0002/ILSVRC2015_train_00545000/'
p1444
aS'train/ILSVRC2015_VID_train_0002/ILSVRC2015_train_00624000/'
p1445
aS'train/ILSVRC2015_VID_train_0002/ILSVRC2015_train_00360001/'
p1446
aS'train/ILSVRC2015_VID_train_0002/ILSVRC2015_train_00563001/'
p1447
aS'train/ILSVRC2015_VID_train_0002/ILSVRC2015_train_00420000/'
p1448
aS'train/ILSVRC2015_VID_train_0002/ILSVRC2015_train_00591000/'
p1449
aS'train/ILSVRC2015_VID_train_0002/ILSVRC2015_train_00346000/'
p1450
aS'train/ILSVRC2015_VID_train_0002/ILSVRC2015_train_00415007/'
p1451
aS'train/ILSVRC2015_VID_train_0002/ILSVRC2015_train_00548000/'
p1452
aS'train/ILSVRC2015_VID_train_0002/ILSVRC2015_train_00633000/'
p1453
aS'train/ILSVRC2015_VID_train_0002/ILSVRC2015_train_00715002/'
p1454
aS'train/ILSVRC2015_VID_train_0002/ILSVRC2015_train_00371001/'
p1455
aS'train/ILSVRC2015_VID_train_0002/ILSVRC2015_train_00718000/'
p1456
aS'train/ILSVRC2015_VID_train_0002/ILSVRC2015_train_00706000/'
p1457
aS'train/ILSVRC2015_VID_train_0002/ILSVRC2015_train_00540000/'
p1458
aS'train/ILSVRC2015_VID_train_0002/ILSVRC2015_train_00631000/'
p1459
aS'train/ILSVRC2015_VID_train_0002/ILSVRC2015_train_00661001/'
p1460
aS'train/ILSVRC2015_VID_train_0002/ILSVRC2015_train_00538000/'
p1461
aS'train/ILSVRC2015_VID_train_0002/ILSVRC2015_train_00652000/'
p1462
aS'train/ILSVRC2015_VID_train_0002/ILSVRC2015_train_00527004/'
p1463
aS'train/ILSVRC2015_VID_train_0002/ILSVRC2015_train_00402000/'
p1464
aS'train/ILSVRC2015_VID_train_0002/ILSVRC2015_train_00473003/'
p1465
aS'train/ILSVRC2015_VID_train_0002/ILSVRC2015_train_00343000/'
p1466
aS'train/ILSVRC2015_VID_train_0002/ILSVRC2015_train_00430000/'
p1467
aS'train/ILSVRC2015_VID_train_0002/ILSVRC2015_train_00640000/'
p1468
aS'train/ILSVRC2015_VID_train_0002/ILSVRC2015_train_00566000/'
p1469
aS'train/ILSVRC2015_VID_train_0002/ILSVRC2015_train_00344000/'
p1470
aS'train/ILSVRC2015_VID_train_0002/ILSVRC2015_train_00605002/'
p1471
aS'train/ILSVRC2015_VID_train_0002/ILSVRC2015_train_00362001/'
p1472
aS'train/ILSVRC2015_VID_train_0002/ILSVRC2015_train_00362000/'
p1473
aS'train/ILSVRC2015_VID_train_0002/ILSVRC2015_train_00536000/'
p1474
aS'train/ILSVRC2015_VID_train_0002/ILSVRC2015_train_00422000/'
p1475
aS'train/ILSVRC2015_VID_train_0002/ILSVRC2015_train_00656000/'
p1476
aS'train/ILSVRC2015_VID_train_0002/ILSVRC2015_train_00451000/'
p1477
aS'train/ILSVRC2015_VID_train_0002/ILSVRC2015_train_00661002/'
p1478
aS'train/ILSVRC2015_VID_train_0002/ILSVRC2015_train_00481000/'
p1479
aS'train/ILSVRC2015_VID_train_0002/ILSVRC2015_train_00468000/'
p1480
aS'train/ILSVRC2015_VID_train_0002/ILSVRC2015_train_00687000/'
p1481
aS'train/ILSVRC2015_VID_train_0002/ILSVRC2015_train_00740000/'
p1482
aS'train/ILSVRC2015_VID_train_0002/ILSVRC2015_train_00371003/'
p1483
aS'train/ILSVRC2015_VID_train_0002/ILSVRC2015_train_00365000/'
p1484
aS'train/ILSVRC2015_VID_train_0002/ILSVRC2015_train_00506000/'
p1485
aS'train/ILSVRC2015_VID_train_0002/ILSVRC2015_train_00746004/'
p1486
aS'train/ILSVRC2015_VID_train_0002/ILSVRC2015_train_00557000/'
p1487
aS'train/ILSVRC2015_VID_train_0002/ILSVRC2015_train_00364001/'
p1488
aS'train/ILSVRC2015_VID_train_0002/ILSVRC2015_train_00369003/'
p1489
aS'train/ILSVRC2015_VID_train_0002/ILSVRC2015_train_00485001/'
p1490
aS'train/ILSVRC2015_VID_train_0002/ILSVRC2015_train_00596004/'
p1491
aS'train/ILSVRC2015_VID_train_0002/ILSVRC2015_train_00755001/'
p1492
aS'train/ILSVRC2015_VID_train_0002/ILSVRC2015_train_00399001/'
p1493
aS'train/ILSVRC2015_VID_train_0002/ILSVRC2015_train_00725000/'
p1494
aS'train/ILSVRC2015_VID_train_0002/ILSVRC2015_train_00611000/'
p1495
aS'train/ILSVRC2015_VID_train_0002/ILSVRC2015_train_00684001/'
p1496
aS'train/ILSVRC2015_VID_train_0002/ILSVRC2015_train_00458000/'
p1497
aS'train/ILSVRC2015_VID_train_0002/ILSVRC2015_train_00452000/'
p1498
aS'train/ILSVRC2015_VID_train_0002/ILSVRC2015_train_00614000/'
p1499
aS'train/ILSVRC2015_VID_train_0002/ILSVRC2015_train_00555003/'
p1500
aS'train/ILSVRC2015_VID_train_0002/ILSVRC2015_train_00682008/'
p1501
aS'train/ILSVRC2015_VID_train_0002/ILSVRC2015_train_00647000/'
p1502
aS'train/ILSVRC2015_VID_train_0002/ILSVRC2015_train_00587000/'
p1503
aS'train/ILSVRC2015_VID_train_0002/ILSVRC2015_train_00712000/'
p1504
aS'train/ILSVRC2015_VID_train_0002/ILSVRC2015_train_00499000/'
p1505
aS'train/ILSVRC2015_VID_train_0002/ILSVRC2015_train_00682009/'
p1506
aS'train/ILSVRC2015_VID_train_0002/ILSVRC2015_train_00613000/'
p1507
aS'train/ILSVRC2015_VID_train_0002/ILSVRC2015_train_00603000/'
p1508
aS'train/ILSVRC2015_VID_train_0002/ILSVRC2015_train_00743005/'
p1509
aS'train/ILSVRC2015_VID_train_0002/ILSVRC2015_train_00446000/'
p1510
aS'train/ILSVRC2015_VID_train_0002/ILSVRC2015_train_00730000/'
p1511
aS'train/ILSVRC2015_VID_train_0002/ILSVRC2015_train_00588002/'
p1512
aS'train/ILSVRC2015_VID_train_0002/ILSVRC2015_train_00544000/'
p1513
aS'train/ILSVRC2015_VID_train_0002/ILSVRC2015_train_00410001/'
p1514
aS'train/ILSVRC2015_VID_train_0002/ILSVRC2015_train_00685000/'
p1515
aS'train/ILSVRC2015_VID_train_0002/ILSVRC2015_train_00613001/'
p1516
aS'train/ILSVRC2015_VID_train_0002/ILSVRC2015_train_00766000/'
p1517
aS'train/ILSVRC2015_VID_train_0002/ILSVRC2015_train_00465000/'
p1518
aS'train/ILSVRC2015_VID_train_0002/ILSVRC2015_train_00573003/'
p1519
aS'train/ILSVRC2015_VID_train_0002/ILSVRC2015_train_00473001/'
p1520
aS'train/ILSVRC2015_VID_train_0002/ILSVRC2015_train_00682006/'
p1521
aS'train/ILSVRC2015_VID_train_0002/ILSVRC2015_train_00369002/'
p1522
aS'train/ILSVRC2015_VID_train_0002/ILSVRC2015_train_00624002/'
p1523
aS'train/ILSVRC2015_VID_train_0002/ILSVRC2015_train_00369004/'
p1524
aS'train/ILSVRC2015_VID_train_0002/ILSVRC2015_train_00568002/'
p1525
aS'train/ILSVRC2015_VID_train_0002/ILSVRC2015_train_00673002/'
p1526
aS'train/ILSVRC2015_VID_train_0002/ILSVRC2015_train_00479002/'
p1527
aS'train/ILSVRC2015_VID_train_0002/ILSVRC2015_train_00537000/'
p1528
aS'train/ILSVRC2015_VID_train_0002/ILSVRC2015_train_00682002/'
p1529
aS'train/ILSVRC2015_VID_train_0002/ILSVRC2015_train_00356001/'
p1530
aS'train/ILSVRC2015_VID_train_0002/ILSVRC2015_train_00415003/'
p1531
aS'train/ILSVRC2015_VID_train_0002/ILSVRC2015_train_00605000/'
p1532
aS'train/ILSVRC2015_VID_train_0002/ILSVRC2015_train_00562001/'
p1533
aS'train/ILSVRC2015_VID_train_0002/ILSVRC2015_train_00595000/'
p1534
aS'train/ILSVRC2015_VID_train_0002/ILSVRC2015_train_00519000/'
p1535
aS'train/ILSVRC2015_VID_train_0002/ILSVRC2015_train_00361000/'
p1536
aS'train/ILSVRC2015_VID_train_0002/ILSVRC2015_train_00759000/'
p1537
aS'train/ILSVRC2015_VID_train_0002/ILSVRC2015_train_00579000/'
p1538
aS'train/ILSVRC2015_VID_train_0002/ILSVRC2015_train_00715000/'
p1539
aS'train/ILSVRC2015_VID_train_0002/ILSVRC2015_train_00411000/'
p1540
aS'train/ILSVRC2015_VID_train_0002/ILSVRC2015_train_00646002/'
p1541
aS'train/ILSVRC2015_VID_train_0002/ILSVRC2015_train_00720000/'
p1542
aS'train/ILSVRC2015_VID_train_0002/ILSVRC2015_train_00415006/'
p1543
aS'train/ILSVRC2015_VID_train_0002/ILSVRC2015_train_00660000/'
p1544
aS'train/ILSVRC2015_VID_train_0002/ILSVRC2015_train_00528000/'
p1545
aS'train/ILSVRC2015_VID_train_0002/ILSVRC2015_train_00573002/'
p1546
aS'train/ILSVRC2015_VID_train_0002/ILSVRC2015_train_00705000/'
p1547
aS'train/ILSVRC2015_VID_train_0002/ILSVRC2015_train_00371008/'
p1548
aS'train/ILSVRC2015_VID_train_0002/ILSVRC2015_train_00342000/'
p1549
aS'train/ILSVRC2015_VID_train_0002/ILSVRC2015_train_00552000/'
p1550
aS'train/ILSVRC2015_VID_train_0002/ILSVRC2015_train_00659000/'
p1551
aS'train/ILSVRC2015_VID_train_0002/ILSVRC2015_train_00745000/'
p1552
aS'train/ILSVRC2015_VID_train_0002/ILSVRC2015_train_00371010/'
p1553
aS'train/ILSVRC2015_VID_train_0002/ILSVRC2015_train_00384000/'
p1554
aS'train/ILSVRC2015_VID_train_0002/ILSVRC2015_train_00412000/'
p1555
aS'train/ILSVRC2015_VID_train_0002/ILSVRC2015_train_00677000/'
p1556
aS'train/ILSVRC2015_VID_train_0002/ILSVRC2015_train_00490001/'
p1557
aS'train/ILSVRC2015_VID_train_0002/ILSVRC2015_train_00417000/'
p1558
aS'train/ILSVRC2015_VID_train_0002/ILSVRC2015_train_00573004/'
p1559
aS'train/ILSVRC2015_VID_train_0002/ILSVRC2015_train_00756000/'
p1560
aS'train/ILSVRC2015_VID_train_0002/ILSVRC2015_train_00364002/'
p1561
aS'train/ILSVRC2015_VID_train_0002/ILSVRC2015_train_00648000/'
p1562
aS'train/ILSVRC2015_VID_train_0002/ILSVRC2015_train_00596006/'
p1563
aS'train/ILSVRC2015_VID_train_0002/ILSVRC2015_train_00398001/'
p1564
aS'train/ILSVRC2015_VID_train_0002/ILSVRC2015_train_00371004/'
p1565
aS'train/ILSVRC2015_VID_train_0002/ILSVRC2015_train_00743004/'
p1566
aS'train/ILSVRC2015_VID_train_0002/ILSVRC2015_train_00743002/'
p1567
aS'train/ILSVRC2015_VID_train_0002/ILSVRC2015_train_00371005/'
p1568
aS'train/ILSVRC2015_VID_train_0002/ILSVRC2015_train_00651001/'
p1569
aS'train/ILSVRC2015_VID_train_0002/ILSVRC2015_train_00682001/'
p1570
aS'train/ILSVRC2015_VID_train_0002/ILSVRC2015_train_00428000/'
p1571
aS'train/ILSVRC2015_VID_train_0002/ILSVRC2015_train_00505001/'
p1572
aS'train/ILSVRC2015_VID_train_0002/ILSVRC2015_train_00532000/'
p1573
aS'train/ILSVRC2015_VID_train_0002/ILSVRC2015_train_00596002/'
p1574
aS'train/ILSVRC2015_VID_train_0002/ILSVRC2015_train_00461000/'
p1575
aS'train/ILSVRC2015_VID_train_0002/ILSVRC2015_train_00448000/'
p1576
aS'train/ILSVRC2015_VID_train_0002/ILSVRC2015_train_00401001/'
p1577
aS'train/ILSVRC2015_VID_train_0002/ILSVRC2015_train_00415004/'
p1578
aS'train/ILSVRC2015_VID_train_0002/ILSVRC2015_train_00601000/'
p1579
aS'train/ILSVRC2015_VID_train_0002/ILSVRC2015_train_00573000/'
p1580
aS'train/ILSVRC2015_VID_train_0002/ILSVRC2015_train_00737000/'
p1581
aS'train/ILSVRC2015_VID_train_0002/ILSVRC2015_train_00398003/'
p1582
aS'train/ILSVRC2015_VID_train_0002/ILSVRC2015_train_00516000/'
p1583
aS'train/ILSVRC2015_VID_train_0002/ILSVRC2015_train_00366000/'
p1584
aS'train/ILSVRC2015_VID_train_0002/ILSVRC2015_train_00670000/'
p1585
aS'train/ILSVRC2015_VID_train_0002/ILSVRC2015_train_00527009/'
p1586
aS'train/ILSVRC2015_VID_train_0002/ILSVRC2015_train_00496001/'
p1587
aS'train/ILSVRC2015_VID_train_0002/ILSVRC2015_train_00371011/'
p1588
aS'train/ILSVRC2015_VID_train_0002/ILSVRC2015_train_00666000/'
p1589
aS'train/ILSVRC2015_VID_train_0002/ILSVRC2015_train_00686000/'
p1590
aS'train/ILSVRC2015_VID_train_0002/ILSVRC2015_train_00473002/'
p1591
aS'train/ILSVRC2015_VID_train_0002/ILSVRC2015_train_00568001/'
p1592
aS'train/ILSVRC2015_VID_train_0002/ILSVRC2015_train_00413000/'
p1593
aS'train/ILSVRC2015_VID_train_0002/ILSVRC2015_train_00392000/'
p1594
aS'train/ILSVRC2015_VID_train_0002/ILSVRC2015_train_00479004/'
p1595
aS'train/ILSVRC2015_VID_train_0002/ILSVRC2015_train_00379000/'
p1596
aS'train/ILSVRC2015_VID_train_0002/ILSVRC2015_train_00750000/'
p1597
aS'train/ILSVRC2015_VID_train_0002/ILSVRC2015_train_00397000/'
p1598
aS'train/ILSVRC2015_VID_train_0002/ILSVRC2015_train_00415000/'
p1599
aS'train/ILSVRC2015_VID_train_0002/ILSVRC2015_train_00401000/'
p1600
aS'train/ILSVRC2015_VID_train_0002/ILSVRC2015_train_00039003/'
p1601
aS'train/ILSVRC2015_VID_train_0002/ILSVRC2015_train_00555001/'
p1602
aS'train/ILSVRC2015_VID_train_0002/ILSVRC2015_train_00548001/'
p1603
aS'train/ILSVRC2015_VID_train_0002/ILSVRC2015_train_00478000/'
p1604
aS'train/ILSVRC2015_VID_train_0002/ILSVRC2015_train_00562000/'
p1605
aS'train/ILSVRC2015_VID_train_0002/ILSVRC2015_train_00743001/'
p1606
aS'train/ILSVRC2015_VID_train_0002/ILSVRC2015_train_00708000/'
p1607
aS'train/ILSVRC2015_VID_train_0002/ILSVRC2015_train_00432000/'
p1608
aS'train/ILSVRC2015_VID_train_0002/ILSVRC2015_train_00568000/'
p1609
aS'train/ILSVRC2015_VID_train_0002/ILSVRC2015_train_00415002/'
p1610
aS'train/ILSVRC2015_VID_train_0002/ILSVRC2015_train_00742000/'
p1611
aS'train/ILSVRC2015_VID_train_0002/ILSVRC2015_train_00741000/'
p1612
aS'train/ILSVRC2015_VID_train_0002/ILSVRC2015_train_00410000/'
p1613
aS'train/ILSVRC2015_VID_train_0002/ILSVRC2015_train_00530000/'
p1614
aS'train/ILSVRC2015_VID_train_0002/ILSVRC2015_train_00596005/'
p1615
aS'train/ILSVRC2015_VID_train_0002/ILSVRC2015_train_00576000/'
p1616
aS'train/ILSVRC2015_VID_train_0002/ILSVRC2015_train_00561000/'
p1617
aS'train/ILSVRC2015_VID_train_0002/ILSVRC2015_train_00742002/'
p1618
aS'train/ILSVRC2015_VID_train_0002/ILSVRC2015_train_00638000/'
p1619
aS'train/ILSVRC2015_VID_train_0002/ILSVRC2015_train_00371000/'
p1620
aS'train/ILSVRC2015_VID_train_0002/ILSVRC2015_train_00538001/'
p1621
aS'train/ILSVRC2015_VID_train_0002/ILSVRC2015_train_00502004/'
p1622
aS'train/ILSVRC2015_VID_train_0002/ILSVRC2015_train_00541000/'
p1623
aS'train/ILSVRC2015_VID_train_0002/ILSVRC2015_train_00561001/'
p1624
aS'train/ILSVRC2015_VID_train_0002/ILSVRC2015_train_00624003/'
p1625
aS'train/ILSVRC2015_VID_train_0002/ILSVRC2015_train_00643000/'
p1626
aS'train/ILSVRC2015_VID_train_0002/ILSVRC2015_train_00621000/'
p1627
aS'train/ILSVRC2015_VID_train_0002/ILSVRC2015_train_00355000/'
p1628
aS'train/ILSVRC2015_VID_train_0002/ILSVRC2015_train_00527000/'
p1629
aS'train/ILSVRC2015_VID_train_0002/ILSVRC2015_train_00369000/'
p1630
aS'train/ILSVRC2015_VID_train_0002/ILSVRC2015_train_00505000/'
p1631
aS'train/ILSVRC2015_VID_train_0002/ILSVRC2015_train_00736000/'
p1632
aS'train/ILSVRC2015_VID_train_0002/ILSVRC2015_train_00541001/'
p1633
aS'train/ILSVRC2015_VID_train_0002/ILSVRC2015_train_00521000/'
p1634
aS'train/ILSVRC2015_VID_train_0002/ILSVRC2015_train_00762000/'
p1635
aS'train/ILSVRC2015_VID_train_0002/ILSVRC2015_train_00520000/'
p1636
aS'train/ILSVRC2015_VID_train_0002/ILSVRC2015_train_00757001/'
p1637
aS'train/ILSVRC2015_VID_train_0002/ILSVRC2015_train_00618000/'
p1638
aS'train/ILSVRC2015_VID_train_0002/ILSVRC2015_train_00508000/'
p1639
aS'train/ILSVRC2015_VID_train_0002/ILSVRC2015_train_00768001/'
p1640
aS'train/ILSVRC2015_VID_train_0003/ILSVRC2015_train_00945004/'
p1641
aS'train/ILSVRC2015_VID_train_0003/ILSVRC2015_train_00803000/'
p1642
aS'train/ILSVRC2015_VID_train_0003/ILSVRC2015_train_01134000/'
p1643
aS'train/ILSVRC2015_VID_train_0003/ILSVRC2015_train_00780000/'
p1644
aS'train/ILSVRC2015_VID_train_0003/ILSVRC2015_train_00960002/'
p1645
aS'train/ILSVRC2015_VID_train_0003/ILSVRC2015_train_00948000/'
p1646
aS'train/ILSVRC2015_VID_train_0003/ILSVRC2015_train_00795000/'
p1647
aS'train/ILSVRC2015_VID_train_0003/ILSVRC2015_train_01132000/'
p1648
aS'train/ILSVRC2015_VID_train_0003/ILSVRC2015_train_01026001/'
p1649
aS'train/ILSVRC2015_VID_train_0003/ILSVRC2015_train_01011000/'
p1650
aS'train/ILSVRC2015_VID_train_0003/ILSVRC2015_train_00846001/'
p1651
aS'train/ILSVRC2015_VID_train_0003/ILSVRC2015_train_01076001/'
p1652
aS'train/ILSVRC2015_VID_train_0003/ILSVRC2015_train_00947000/'
p1653
aS'train/ILSVRC2015_VID_train_0003/ILSVRC2015_train_00907000/'
p1654
aS'train/ILSVRC2015_VID_train_0003/ILSVRC2015_train_00839000/'
p1655
aS'train/ILSVRC2015_VID_train_0003/ILSVRC2015_train_00960001/'
p1656
aS'train/ILSVRC2015_VID_train_0003/ILSVRC2015_train_01075000/'
p1657
aS'train/ILSVRC2015_VID_train_0003/ILSVRC2015_train_01029001/'
p1658
aS'train/ILSVRC2015_VID_train_0003/ILSVRC2015_train_01008000/'
p1659
aS'train/ILSVRC2015_VID_train_0003/ILSVRC2015_train_00869000/'
p1660
aS'train/ILSVRC2015_VID_train_0003/ILSVRC2015_train_00981001/'
p1661
aS'train/ILSVRC2015_VID_train_0003/ILSVRC2015_train_01136000/'
p1662
aS'train/ILSVRC2015_VID_train_0003/ILSVRC2015_train_01071000/'
p1663
aS'train/ILSVRC2015_VID_train_0003/ILSVRC2015_train_00952000/'
p1664
aS'train/ILSVRC2015_VID_train_0003/ILSVRC2015_train_00237005/'
p1665
aS'train/ILSVRC2015_VID_train_0003/ILSVRC2015_train_00900000/'
p1666
aS'train/ILSVRC2015_VID_train_0003/ILSVRC2015_train_01148000/'
p1667
aS'train/ILSVRC2015_VID_train_0003/ILSVRC2015_train_01027000/'
p1668
aS'train/ILSVRC2015_VID_train_0003/ILSVRC2015_train_01117001/'
p1669
aS'train/ILSVRC2015_VID_train_0003/ILSVRC2015_train_01063000/'
p1670
aS'train/ILSVRC2015_VID_train_0003/ILSVRC2015_train_01009003/'
p1671
aS'train/ILSVRC2015_VID_train_0003/ILSVRC2015_train_00897013/'
p1672
aS'train/ILSVRC2015_VID_train_0003/ILSVRC2015_train_01042000/'
p1673
aS'train/ILSVRC2015_VID_train_0003/ILSVRC2015_train_01052000/'
p1674
aS'train/ILSVRC2015_VID_train_0003/ILSVRC2015_train_00800001/'
p1675
aS'train/ILSVRC2015_VID_train_0003/ILSVRC2015_train_01111000/'
p1676
aS'train/ILSVRC2015_VID_train_0003/ILSVRC2015_train_01130000/'
p1677
aS'train/ILSVRC2015_VID_train_0003/ILSVRC2015_train_00991001/'
p1678
aS'train/ILSVRC2015_VID_train_0003/ILSVRC2015_train_00855002/'
p1679
aS'train/ILSVRC2015_VID_train_0003/ILSVRC2015_train_00789000/'
p1680
aS'train/ILSVRC2015_VID_train_0003/ILSVRC2015_train_00788002/'
p1681
aS'train/ILSVRC2015_VID_train_0003/ILSVRC2015_train_01017000/'
p1682
aS'train/ILSVRC2015_VID_train_0003/ILSVRC2015_train_01048006/'
p1683
aS'train/ILSVRC2015_VID_train_0003/ILSVRC2015_train_00857000/'
p1684
aS'train/ILSVRC2015_VID_train_0003/ILSVRC2015_train_01145000/'
p1685
aS'train/ILSVRC2015_VID_train_0003/ILSVRC2015_train_01003000/'
p1686
aS'train/ILSVRC2015_VID_train_0003/ILSVRC2015_train_00797005/'
p1687
aS'train/ILSVRC2015_VID_train_0003/ILSVRC2015_train_01074000/'
p1688
aS'train/ILSVRC2015_VID_train_0003/ILSVRC2015_train_00897003/'
p1689
aS'train/ILSVRC2015_VID_train_0003/ILSVRC2015_train_00939000/'
p1690
aS'train/ILSVRC2015_VID_train_0003/ILSVRC2015_train_00905000/'
p1691
aS'train/ILSVRC2015_VID_train_0003/ILSVRC2015_train_00867002/'
p1692
aS'train/ILSVRC2015_VID_train_0003/ILSVRC2015_train_01092000/'
p1693
aS'train/ILSVRC2015_VID_train_0003/ILSVRC2015_train_00804000/'
p1694
aS'train/ILSVRC2015_VID_train_0003/ILSVRC2015_train_00783000/'
p1695
aS'train/ILSVRC2015_VID_train_0003/ILSVRC2015_train_01036000/'
p1696
aS'train/ILSVRC2015_VID_train_0003/ILSVRC2015_train_01016000/'
p1697
aS'train/ILSVRC2015_VID_train_0003/ILSVRC2015_train_00951000/'
p1698
aS'train/ILSVRC2015_VID_train_0003/ILSVRC2015_train_00866000/'
p1699
aS'train/ILSVRC2015_VID_train_0003/ILSVRC2015_train_00913000/'
p1700
aS'train/ILSVRC2015_VID_train_0003/ILSVRC2015_train_00875004/'
p1701
aS'train/ILSVRC2015_VID_train_0003/ILSVRC2015_train_00892000/'
p1702
aS'train/ILSVRC2015_VID_train_0003/ILSVRC2015_train_00237004/'
p1703
aS'train/ILSVRC2015_VID_train_0003/ILSVRC2015_train_01114000/'
p1704
aS'train/ILSVRC2015_VID_train_0003/ILSVRC2015_train_00797004/'
p1705
aS'train/ILSVRC2015_VID_train_0003/ILSVRC2015_train_00870000/'
p1706
aS'train/ILSVRC2015_VID_train_0003/ILSVRC2015_train_01103000/'
p1707
aS'train/ILSVRC2015_VID_train_0003/ILSVRC2015_train_00878000/'
p1708
aS'train/ILSVRC2015_VID_train_0003/ILSVRC2015_train_00856000/'
p1709
aS'train/ILSVRC2015_VID_train_0003/ILSVRC2015_train_00980001/'
p1710
aS'train/ILSVRC2015_VID_train_0003/ILSVRC2015_train_00863000/'
p1711
aS'train/ILSVRC2015_VID_train_0003/ILSVRC2015_train_00770001/'
p1712
aS'train/ILSVRC2015_VID_train_0003/ILSVRC2015_train_01095000/'
p1713
aS'train/ILSVRC2015_VID_train_0003/ILSVRC2015_train_00829000/'
p1714
aS'train/ILSVRC2015_VID_train_0003/ILSVRC2015_train_00805000/'
p1715
aS'train/ILSVRC2015_VID_train_0003/ILSVRC2015_train_01125000/'
p1716
aS'train/ILSVRC2015_VID_train_0003/ILSVRC2015_train_01017004/'
p1717
aS'train/ILSVRC2015_VID_train_0003/ILSVRC2015_train_00783001/'
p1718
aS'train/ILSVRC2015_VID_train_0003/ILSVRC2015_train_00998004/'
p1719
aS'train/ILSVRC2015_VID_train_0003/ILSVRC2015_train_01006000/'
p1720
aS'train/ILSVRC2015_VID_train_0003/ILSVRC2015_train_01147000/'
p1721
aS'train/ILSVRC2015_VID_train_0003/ILSVRC2015_train_00991000/'
p1722
aS'train/ILSVRC2015_VID_train_0003/ILSVRC2015_train_01009008/'
p1723
aS'train/ILSVRC2015_VID_train_0003/ILSVRC2015_train_00877000/'
p1724
aS'train/ILSVRC2015_VID_train_0003/ILSVRC2015_train_01047000/'
p1725
aS'train/ILSVRC2015_VID_train_0003/ILSVRC2015_train_00899001/'
p1726
aS'train/ILSVRC2015_VID_train_0003/ILSVRC2015_train_00836000/'
p1727
aS'train/ILSVRC2015_VID_train_0003/ILSVRC2015_train_00886000/'
p1728
aS'train/ILSVRC2015_VID_train_0003/ILSVRC2015_train_01035000/'
p1729
aS'train/ILSVRC2015_VID_train_0003/ILSVRC2015_train_00980000/'
p1730
aS'train/ILSVRC2015_VID_train_0003/ILSVRC2015_train_00899000/'
p1731
aS'train/ILSVRC2015_VID_train_0003/ILSVRC2015_train_01048005/'
p1732
aS'train/ILSVRC2015_VID_train_0003/ILSVRC2015_train_00946000/'
p1733
aS'train/ILSVRC2015_VID_train_0003/ILSVRC2015_train_00849001/'
p1734
aS'train/ILSVRC2015_VID_train_0003/ILSVRC2015_train_01104000/'
p1735
aS'train/ILSVRC2015_VID_train_0003/ILSVRC2015_train_00809000/'
p1736
aS'train/ILSVRC2015_VID_train_0003/ILSVRC2015_train_01087000/'
p1737
aS'train/ILSVRC2015_VID_train_0003/ILSVRC2015_train_00895000/'
p1738
aS'train/ILSVRC2015_VID_train_0003/ILSVRC2015_train_00817000/'
p1739
aS'train/ILSVRC2015_VID_train_0003/ILSVRC2015_train_00996001/'
p1740
aS'train/ILSVRC2015_VID_train_0003/ILSVRC2015_train_00960000/'
p1741
aS'train/ILSVRC2015_VID_train_0003/ILSVRC2015_train_01009007/'
p1742
aS'train/ILSVRC2015_VID_train_0003/ILSVRC2015_train_01091000/'
p1743
aS'train/ILSVRC2015_VID_train_0003/ILSVRC2015_train_01151000/'
p1744
aS'train/ILSVRC2015_VID_train_0003/ILSVRC2015_train_01143000/'
p1745
aS'train/ILSVRC2015_VID_train_0003/ILSVRC2015_train_00971000/'
p1746
aS'train/ILSVRC2015_VID_train_0003/ILSVRC2015_train_00773000/'
p1747
aS'train/ILSVRC2015_VID_train_0003/ILSVRC2015_train_00782000/'
p1748
aS'train/ILSVRC2015_VID_train_0003/ILSVRC2015_train_00810001/'
p1749
aS'train/ILSVRC2015_VID_train_0003/ILSVRC2015_train_01051000/'
p1750
aS'train/ILSVRC2015_VID_train_0003/ILSVRC2015_train_01138000/'
p1751
aS'train/ILSVRC2015_VID_train_0003/ILSVRC2015_train_00782001/'
p1752
aS'train/ILSVRC2015_VID_train_0003/ILSVRC2015_train_00965000/'
p1753
aS'train/ILSVRC2015_VID_train_0003/ILSVRC2015_train_00957000/'
p1754
aS'train/ILSVRC2015_VID_train_0003/ILSVRC2015_train_01076000/'
p1755
aS'train/ILSVRC2015_VID_train_0003/ILSVRC2015_train_01084000/'
p1756
aS'train/ILSVRC2015_VID_train_0003/ILSVRC2015_train_00901000/'
p1757
aS'train/ILSVRC2015_VID_train_0003/ILSVRC2015_train_01041002/'
p1758
aS'train/ILSVRC2015_VID_train_0003/ILSVRC2015_train_00911000/'
p1759
aS'train/ILSVRC2015_VID_train_0003/ILSVRC2015_train_00974000/'
p1760
aS'train/ILSVRC2015_VID_train_0003/ILSVRC2015_train_00843001/'
p1761
aS'train/ILSVRC2015_VID_train_0003/ILSVRC2015_train_01045000/'
p1762
aS'train/ILSVRC2015_VID_train_0003/ILSVRC2015_train_00797000/'
p1763
aS'train/ILSVRC2015_VID_train_0003/ILSVRC2015_train_00832000/'
p1764
aS'train/ILSVRC2015_VID_train_0003/ILSVRC2015_train_01031000/'
p1765
aS'train/ILSVRC2015_VID_train_0003/ILSVRC2015_train_01137000/'
p1766
aS'train/ILSVRC2015_VID_train_0003/ILSVRC2015_train_01090000/'
p1767
aS'train/ILSVRC2015_VID_train_0003/ILSVRC2015_train_00925000/'
p1768
aS'train/ILSVRC2015_VID_train_0003/ILSVRC2015_train_01029000/'
p1769
aS'train/ILSVRC2015_VID_train_0003/ILSVRC2015_train_01000004/'
p1770
aS'train/ILSVRC2015_VID_train_0003/ILSVRC2015_train_00955000/'
p1771
aS'train/ILSVRC2015_VID_train_0003/ILSVRC2015_train_01029002/'
p1772
aS'train/ILSVRC2015_VID_train_0003/ILSVRC2015_train_00800000/'
p1773
aS'train/ILSVRC2015_VID_train_0003/ILSVRC2015_train_00984000/'
p1774
aS'train/ILSVRC2015_VID_train_0003/ILSVRC2015_train_00875006/'
p1775
aS'train/ILSVRC2015_VID_train_0003/ILSVRC2015_train_00889000/'
p1776
aS'train/ILSVRC2015_VID_train_0003/ILSVRC2015_train_01123000/'
p1777
aS'train/ILSVRC2015_VID_train_0003/ILSVRC2015_train_00865000/'
p1778
aS'train/ILSVRC2015_VID_train_0003/ILSVRC2015_train_01109000/'
p1779
aS'train/ILSVRC2015_VID_train_0003/ILSVRC2015_train_01076002/'
p1780
aS'train/ILSVRC2015_VID_train_0003/ILSVRC2015_train_00916000/'
p1781
aS'train/ILSVRC2015_VID_train_0003/ILSVRC2015_train_00843000/'
p1782
aS'train/ILSVRC2015_VID_train_0003/ILSVRC2015_train_01091001/'
p1783
aS'train/ILSVRC2015_VID_train_0003/ILSVRC2015_train_00875000/'
p1784
aS'train/ILSVRC2015_VID_train_0003/ILSVRC2015_train_00855000/'
p1785
aS'train/ILSVRC2015_VID_train_0003/ILSVRC2015_train_01019000/'
p1786
aS'train/ILSVRC2015_VID_train_0003/ILSVRC2015_train_00970000/'
p1787
aS'train/ILSVRC2015_VID_train_0003/ILSVRC2015_train_00983000/'
p1788
aS'train/ILSVRC2015_VID_train_0003/ILSVRC2015_train_00787000/'
p1789
aS'train/ILSVRC2015_VID_train_0003/ILSVRC2015_train_01000003/'
p1790
aS'train/ILSVRC2015_VID_train_0003/ILSVRC2015_train_00924000/'
p1791
aS'train/ILSVRC2015_VID_train_0003/ILSVRC2015_train_01112000/'
p1792
aS'train/ILSVRC2015_VID_train_0003/ILSVRC2015_train_00944000/'
p1793
aS'train/ILSVRC2015_VID_train_0003/ILSVRC2015_train_01080000/'
p1794
aS'train/ILSVRC2015_VID_train_0003/ILSVRC2015_train_00867000/'
p1795
aS'train/ILSVRC2015_VID_train_0003/ILSVRC2015_train_01041000/'
p1796
aS'train/ILSVRC2015_VID_train_0003/ILSVRC2015_train_00887001/'
p1797
aS'train/ILSVRC2015_VID_train_0003/ILSVRC2015_train_01032000/'
p1798
aS'train/ILSVRC2015_VID_train_0003/ILSVRC2015_train_00798001/'
p1799
aS'train/ILSVRC2015_VID_train_0003/ILSVRC2015_train_01025000/'
p1800
aS'train/ILSVRC2015_VID_train_0003/ILSVRC2015_train_00872001/'
p1801
aS'train/ILSVRC2015_VID_train_0003/ILSVRC2015_train_01004000/'
p1802
aS'train/ILSVRC2015_VID_train_0003/ILSVRC2015_train_01116000/'
p1803
aS'train/ILSVRC2015_VID_train_0003/ILSVRC2015_train_00878001/'
p1804
aS'train/ILSVRC2015_VID_train_0003/ILSVRC2015_train_00949000/'
p1805
aS'train/ILSVRC2015_VID_train_0003/ILSVRC2015_train_00785000/'
p1806
aS'train/ILSVRC2015_VID_train_0003/ILSVRC2015_train_01005000/'
p1807
aS'train/ILSVRC2015_VID_train_0003/ILSVRC2015_train_01041001/'
p1808
aS'train/ILSVRC2015_VID_train_0003/ILSVRC2015_train_01024000/'
p1809
aS'train/ILSVRC2015_VID_train_0003/ILSVRC2015_train_00791000/'
p1810
aS'train/ILSVRC2015_VID_train_0003/ILSVRC2015_train_00835000/'
p1811
aS'train/ILSVRC2015_VID_train_0003/ILSVRC2015_train_01078000/'
p1812
aS'train/ILSVRC2015_VID_train_0003/ILSVRC2015_train_00900002/'
p1813
aS'train/ILSVRC2015_VID_train_0003/ILSVRC2015_train_01121000/'
p1814
aS'train/ILSVRC2015_VID_train_0003/ILSVRC2015_train_00929000/'
p1815
aS'train/ILSVRC2015_VID_train_0003/ILSVRC2015_train_01099000/'
p1816
aS'train/ILSVRC2015_VID_train_0003/ILSVRC2015_train_00826000/'
p1817
aS'train/ILSVRC2015_VID_train_0003/ILSVRC2015_train_01017001/'
p1818
aS'train/ILSVRC2015_VID_train_0003/ILSVRC2015_train_00851000/'
p1819
aS'train/ILSVRC2015_VID_train_0003/ILSVRC2015_train_00793000/'
p1820
aS'train/ILSVRC2015_VID_train_0003/ILSVRC2015_train_01048000/'
p1821
aS'train/ILSVRC2015_VID_train_0003/ILSVRC2015_train_00834000/'
p1822
aS'train/ILSVRC2015_VID_train_0003/ILSVRC2015_train_00990000/'
p1823
aS'train/ILSVRC2015_VID_train_0003/ILSVRC2015_train_00846002/'
p1824
aS'train/ILSVRC2015_VID_train_0003/ILSVRC2015_train_01026000/'
p1825
aS'train/ILSVRC2015_VID_train_0003/ILSVRC2015_train_01131000/'
p1826
aS'train/ILSVRC2015_VID_train_0003/ILSVRC2015_train_00805001/'
p1827
aS'train/ILSVRC2015_VID_train_0003/ILSVRC2015_train_00970001/'
p1828
aS'train/ILSVRC2015_VID_train_0003/ILSVRC2015_train_00942000/'
p1829
aS'train/ILSVRC2015_VID_train_0003/ILSVRC2015_train_00872000/'
p1830
aS'train/ILSVRC2015_VID_train_0003/ILSVRC2015_train_00807000/'
p1831
aS'train/ILSVRC2015_VID_train_0003/ILSVRC2015_train_01017006/'
p1832
aS'train/ILSVRC2015_VID_train_0003/ILSVRC2015_train_00890000/'
p1833
aS'train/ILSVRC2015_VID_train_0003/ILSVRC2015_train_01106000/'
p1834
aS'train/ILSVRC2015_VID_train_0003/ILSVRC2015_train_01017002/'
p1835
aS'train/ILSVRC2015_VID_train_0003/ILSVRC2015_train_00995000/'
p1836
aS'train/ILSVRC2015_VID_train_0003/ILSVRC2015_train_01094000/'
p1837
aS'train/ILSVRC2015_VID_train_0003/ILSVRC2015_train_00938000/'
p1838
aS'train/ILSVRC2015_VID_train_0003/ILSVRC2015_train_01126000/'
p1839
aS'train/ILSVRC2015_VID_train_0003/ILSVRC2015_train_00937001/'
p1840
aS'train/ILSVRC2015_VID_train_0003/ILSVRC2015_train_01048001/'
p1841
aS'train/ILSVRC2015_VID_train_0003/ILSVRC2015_train_00830000/'
p1842
aS'train/ILSVRC2015_VID_train_0003/ILSVRC2015_train_00797007/'
p1843
aS'train/ILSVRC2015_VID_train_0003/ILSVRC2015_train_00914000/'
p1844
aS'train/ILSVRC2015_VID_train_0003/ILSVRC2015_train_00919001/'
p1845
aS'train/ILSVRC2015_VID_train_0003/ILSVRC2015_train_00903000/'
p1846
aS'train/ILSVRC2015_VID_train_0003/ILSVRC2015_train_01140001/'
p1847
aS'train/ILSVRC2015_VID_train_0003/ILSVRC2015_train_01120000/'
p1848
aS'train/ILSVRC2015_VID_train_0003/ILSVRC2015_train_00875003/'
p1849
aS'train/ILSVRC2015_VID_train_0003/ILSVRC2015_train_00827000/'
p1850
aS'train/ILSVRC2015_VID_train_0003/ILSVRC2015_train_00897008/'
p1851
aS'train/ILSVRC2015_VID_train_0003/ILSVRC2015_train_01139000/'
p1852
aS'train/ILSVRC2015_VID_train_0003/ILSVRC2015_train_00919000/'
p1853
aS'train/ILSVRC2015_VID_train_0003/ILSVRC2015_train_00897010/'
p1854
aS'train/ILSVRC2015_VID_train_0003/ILSVRC2015_train_00811000/'
p1855
aS'train/ILSVRC2015_VID_train_0003/ILSVRC2015_train_01000005/'
p1856
aS'train/ILSVRC2015_VID_train_0003/ILSVRC2015_train_01069000/'
p1857
aS'train/ILSVRC2015_VID_train_0003/ILSVRC2015_train_00956000/'
p1858
aS'train/ILSVRC2015_VID_train_0003/ILSVRC2015_train_00939002/'
p1859
aS'train/ILSVRC2015_VID_train_0003/ILSVRC2015_train_00812000/'
p1860
aS'train/ILSVRC2015_VID_train_0003/ILSVRC2015_train_00820000/'
p1861
aS'train/ILSVRC2015_VID_train_0003/ILSVRC2015_train_01115000/'
p1862
aS'train/ILSVRC2015_VID_train_0003/ILSVRC2015_train_00828000/'
p1863
aS'train/ILSVRC2015_VID_train_0003/ILSVRC2015_train_00897006/'
p1864
aS'train/ILSVRC2015_VID_train_0003/ILSVRC2015_train_00855003/'
p1865
aS'train/ILSVRC2015_VID_train_0003/ILSVRC2015_train_01009005/'
p1866
aS'train/ILSVRC2015_VID_train_0003/ILSVRC2015_train_01000001/'
p1867
aS'train/ILSVRC2015_VID_train_0003/ILSVRC2015_train_00899002/'
p1868
aS'train/ILSVRC2015_VID_train_0003/ILSVRC2015_train_00885000/'
p1869
aS'train/ILSVRC2015_VID_train_0003/ILSVRC2015_train_00992000/'
p1870
aS'train/ILSVRC2015_VID_train_0003/ILSVRC2015_train_01009004/'
p1871
aS'train/ILSVRC2015_VID_train_0003/ILSVRC2015_train_00932000/'
p1872
aS'train/ILSVRC2015_VID_train_0003/ILSVRC2015_train_01025001/'
p1873
aS'train/ILSVRC2015_VID_train_0003/ILSVRC2015_train_01057001/'
p1874
aS'train/ILSVRC2015_VID_train_0003/ILSVRC2015_train_01072000/'
p1875
aS'train/ILSVRC2015_VID_train_0003/ILSVRC2015_train_00873000/'
p1876
aS'train/ILSVRC2015_VID_train_0003/ILSVRC2015_train_00875002/'
p1877
aS'train/ILSVRC2015_VID_train_0003/ILSVRC2015_train_01009000/'
p1878
aS'train/ILSVRC2015_VID_train_0003/ILSVRC2015_train_01000006/'
p1879
aS'train/ILSVRC2015_VID_train_0003/ILSVRC2015_train_01028000/'
p1880
aS'train/ILSVRC2015_VID_train_0003/ILSVRC2015_train_00897000/'
p1881
aS'train/ILSVRC2015_VID_train_0003/ILSVRC2015_train_00821000/'
p1882
aS'train/ILSVRC2015_VID_train_0003/ILSVRC2015_train_01012000/'
p1883
aS'train/ILSVRC2015_VID_train_0003/ILSVRC2015_train_00998001/'
p1884
aS'train/ILSVRC2015_VID_train_0003/ILSVRC2015_train_00940002/'
p1885
aS'train/ILSVRC2015_VID_train_0003/ILSVRC2015_train_00906000/'
p1886
aS'train/ILSVRC2015_VID_train_0003/ILSVRC2015_train_00810000/'
p1887
aS'train/ILSVRC2015_VID_train_0003/ILSVRC2015_train_00778000/'
p1888
aS'train/ILSVRC2015_VID_train_0003/ILSVRC2015_train_00998002/'
p1889
aS'train/ILSVRC2015_VID_train_0003/ILSVRC2015_train_01054001/'
p1890
aS'train/ILSVRC2015_VID_train_0003/ILSVRC2015_train_01000002/'
p1891
aS'train/ILSVRC2015_VID_train_0003/ILSVRC2015_train_00897011/'
p1892
aS'train/ILSVRC2015_VID_train_0003/ILSVRC2015_train_01057000/'
p1893
aS'train/ILSVRC2015_VID_train_0003/ILSVRC2015_train_01011001/'
p1894
aS'train/ILSVRC2015_VID_train_0003/ILSVRC2015_train_00947001/'
p1895
aS'train/ILSVRC2015_VID_train_0003/ILSVRC2015_train_00985001/'
p1896
aS'train/ILSVRC2015_VID_train_0003/ILSVRC2015_train_00788001/'
p1897
aS'train/ILSVRC2015_VID_train_0003/ILSVRC2015_train_01066000/'
p1898
aS'train/ILSVRC2015_VID_train_0003/ILSVRC2015_train_00794000/'
p1899
aS'train/ILSVRC2015_VID_train_0003/ILSVRC2015_train_00849000/'
p1900
aS'train/ILSVRC2015_VID_train_0003/ILSVRC2015_train_01117000/'
p1901
aS'train/ILSVRC2015_VID_train_0003/ILSVRC2015_train_00788000/'
p1902
aS'train/ILSVRC2015_VID_train_0003/ILSVRC2015_train_01127000/'
p1903
aS'train/ILSVRC2015_VID_train_0003/ILSVRC2015_train_01143001/'
p1904
aS'train/ILSVRC2015_VID_train_0003/ILSVRC2015_train_01081000/'
p1905
aS'train/ILSVRC2015_VID_train_0003/ILSVRC2015_train_00897009/'
p1906
aS'train/ILSVRC2015_VID_train_0003/ILSVRC2015_train_00823000/'
p1907
aS'train/ILSVRC2015_VID_train_0003/ILSVRC2015_train_00775000/'
p1908
aS'train/ILSVRC2015_VID_train_0003/ILSVRC2015_train_00891000/'
p1909
aS'train/ILSVRC2015_VID_train_0003/ILSVRC2015_train_00941000/'
p1910
aS'train/ILSVRC2015_VID_train_0003/ILSVRC2015_train_00985000/'
p1911
aS'train/ILSVRC2015_VID_train_0003/ILSVRC2015_train_01142000/'
p1912
aS'train/ILSVRC2015_VID_train_0003/ILSVRC2015_train_00855001/'
p1913
aS'train/ILSVRC2015_VID_train_0003/ILSVRC2015_train_00940003/'
p1914
aS'train/ILSVRC2015_VID_train_0003/ILSVRC2015_train_00862000/'
p1915
aS'train/ILSVRC2015_VID_train_0003/ILSVRC2015_train_00996000/'
p1916
aS'train/ILSVRC2015_VID_train_0003/ILSVRC2015_train_00831000/'
p1917
aS'train/ILSVRC2015_VID_train_0003/ILSVRC2015_train_00945001/'
p1918
aS'train/ILSVRC2015_VID_train_0003/ILSVRC2015_train_00976000/'
p1919
aS'train/ILSVRC2015_VID_train_0003/ILSVRC2015_train_01002000/'
p1920
aS'train/ILSVRC2015_VID_train_0003/ILSVRC2015_train_01022000/'
p1921
aS'train/ILSVRC2015_VID_train_0003/ILSVRC2015_train_00937000/'
p1922
aS'train/ILSVRC2015_VID_train_0003/ILSVRC2015_train_00852000/'
p1923
aS'train/ILSVRC2015_VID_train_0003/ILSVRC2015_train_00867001/'
p1924
aS'train/ILSVRC2015_VID_train_0003/ILSVRC2015_train_01048002/'
p1925
aS'train/ILSVRC2015_VID_train_0003/ILSVRC2015_train_01014000/'
p1926
aS'train/ILSVRC2015_VID_train_0003/ILSVRC2015_train_01035001/'
p1927
aS'train/ILSVRC2015_VID_train_0003/ILSVRC2015_train_01009001/'
p1928
aS'train/ILSVRC2015_VID_train_0003/ILSVRC2015_train_00825000/'
p1929
aS'train/ILSVRC2015_VID_train_0003/ILSVRC2015_train_01056000/'
p1930
aS'train/ILSVRC2015_VID_train_0003/ILSVRC2015_train_00867003/'
p1931
aS'train/ILSVRC2015_VID_train_0003/ILSVRC2015_train_01083001/'
p1932
aS'train/ILSVRC2015_VID_train_0003/ILSVRC2015_train_00981002/'
p1933
aS'train/ILSVRC2015_VID_train_0003/ILSVRC2015_train_01007000/'
p1934
aS'train/ILSVRC2015_VID_train_0003/ILSVRC2015_train_00779000/'
p1935
aS'train/ILSVRC2015_VID_train_0003/ILSVRC2015_train_01099003/'
p1936
aS'train/ILSVRC2015_VID_train_0003/ILSVRC2015_train_01009002/'
p1937
aS'train/ILSVRC2015_VID_train_0003/ILSVRC2015_train_01000000/'
p1938
aS'train/ILSVRC2015_VID_train_0003/ILSVRC2015_train_01070000/'
p1939
aS'train/ILSVRC2015_VID_train_0003/ILSVRC2015_train_01089000/'
p1940
aS'train/ILSVRC2015_VID_train_0003/ILSVRC2015_train_01107000/'
p1941
aS'train/ILSVRC2015_VID_train_0003/ILSVRC2015_train_01017005/'
p1942
aS'train/ILSVRC2015_VID_train_0003/ILSVRC2015_train_00893000/'
p1943
aS'train/ILSVRC2015_VID_train_0003/ILSVRC2015_train_00945003/'
p1944
aS'train/ILSVRC2015_VID_train_0003/ILSVRC2015_train_01096000/'
p1945
aS'train/ILSVRC2015_VID_train_0003/ILSVRC2015_train_01093000/'
p1946
aS'train/ILSVRC2015_VID_train_0003/ILSVRC2015_train_00986000/'
p1947
aS'train/ILSVRC2015_VID_train_0003/ILSVRC2015_train_01140000/'
p1948
aS'train/ILSVRC2015_VID_train_0003/ILSVRC2015_train_00887000/'
p1949
aS'train/ILSVRC2015_VID_train_0003/ILSVRC2015_train_01140003/'
p1950
aS'train/ILSVRC2015_VID_train_0003/ILSVRC2015_train_00897005/'
p1951
aS'train/ILSVRC2015_VID_train_0003/ILSVRC2015_train_00915000/'
p1952
aS'train/ILSVRC2015_VID_train_0003/ILSVRC2015_train_01053000/'
p1953
aS'train/ILSVRC2015_VID_train_0003/ILSVRC2015_train_00804001/'
p1954
aS'train/ILSVRC2015_VID_train_0003/ILSVRC2015_train_01082000/'
p1955
aS'train/ILSVRC2015_VID_train_0003/ILSVRC2015_train_01050000/'
p1956
aS'train/ILSVRC2015_VID_train_0003/ILSVRC2015_train_00797003/'
p1957
aS'train/ILSVRC2015_VID_train_0003/ILSVRC2015_train_00897007/'
p1958
aS'train/ILSVRC2015_VID_train_0003/ILSVRC2015_train_00776000/'
p1959
aS'train/ILSVRC2015_VID_train_0003/ILSVRC2015_train_00797002/'
p1960
aS'train/ILSVRC2015_VID_train_0003/ILSVRC2015_train_00897012/'
p1961
aS'train/ILSVRC2015_VID_train_0003/ILSVRC2015_train_00800002/'
p1962
aS'train/ILSVRC2015_VID_train_0003/ILSVRC2015_train_00824000/'
p1963
aS'train/ILSVRC2015_VID_train_0003/ILSVRC2015_train_00936000/'
p1964
aS'train/ILSVRC2015_VID_train_0003/ILSVRC2015_train_01030000/'
p1965
aS'train/ILSVRC2015_VID_train_0003/ILSVRC2015_train_00790000/'
p1966
aS'train/ILSVRC2015_VID_train_0003/ILSVRC2015_train_01016001/'
p1967
aS'train/ILSVRC2015_VID_train_0003/ILSVRC2015_train_00994000/'
p1968
aS'train/ILSVRC2015_VID_train_0003/ILSVRC2015_train_01092001/'
p1969
aS'train/ILSVRC2015_VID_train_0003/ILSVRC2015_train_00926000/'
p1970
aS'train/ILSVRC2015_VID_train_0003/ILSVRC2015_train_01101000/'
p1971
aS'train/ILSVRC2015_VID_train_0003/ILSVRC2015_train_00799000/'
p1972
aS'train/ILSVRC2015_VID_train_0003/ILSVRC2015_train_00972000/'
p1973
aS'train/ILSVRC2015_VID_train_0003/ILSVRC2015_train_00998000/'
p1974
aS'train/ILSVRC2015_VID_train_0003/ILSVRC2015_train_00940001/'
p1975
aS'train/ILSVRC2015_VID_train_0003/ILSVRC2015_train_01021000/'
p1976
aS'train/ILSVRC2015_VID_train_0003/ILSVRC2015_train_01102000/'
p1977
aS'train/ILSVRC2015_VID_train_0003/ILSVRC2015_train_00940000/'
p1978
aS'train/ILSVRC2015_VID_train_0003/ILSVRC2015_train_01129000/'
p1979
aS'train/ILSVRC2015_VID_train_0003/ILSVRC2015_train_00920000/'
p1980
aS'train/ILSVRC2015_VID_train_0003/ILSVRC2015_train_00945002/'
p1981
aS'train/ILSVRC2015_VID_train_0003/ILSVRC2015_train_01009006/'
p1982
aS'train/ILSVRC2015_VID_train_0003/ILSVRC2015_train_00897004/'
p1983
aS'train/ILSVRC2015_VID_train_0003/ILSVRC2015_train_01058000/'
p1984
aS'train/ILSVRC2015_VID_train_0003/ILSVRC2015_train_01067000/'
p1985
aS'train/ILSVRC2015_VID_train_0003/ILSVRC2015_train_00802000/'
p1986
aS'train/ILSVRC2015_VID_train_0003/ILSVRC2015_train_00945000/'
p1987
aS'train/ILSVRC2015_VID_train_0003/ILSVRC2015_train_00875005/'
p1988
aS'train/ILSVRC2015_VID_train_0003/ILSVRC2015_train_00237002/'
p1989
aS'train/ILSVRC2015_VID_train_0003/ILSVRC2015_train_00964000/'
p1990
aS'train/ILSVRC2015_VID_train_0003/ILSVRC2015_train_01083000/'
p1991
aS'train/ILSVRC2015_VID_train_0003/ILSVRC2015_train_01054000/'
p1992
aS'train/ILSVRC2015_VID_train_0003/ILSVRC2015_train_01140002/'
p1993
aS'train/ILSVRC2015_VID_train_0003/ILSVRC2015_train_00998003/'
p1994
aS'train/ILSVRC2015_VID_train_0003/ILSVRC2015_train_00871000/'
p1995
aS'train/ILSVRC2015_VID_train_0003/ILSVRC2015_train_00781000/'
p1996
aS'train/ILSVRC2015_VID_train_0003/ILSVRC2015_train_00899003/'
p1997
aS'train/ILSVRC2015_VID_train_0003/ILSVRC2015_train_00876000/'
p1998
aS'train/ILSVRC2015_VID_train_0003/ILSVRC2015_train_01049000/'
p1999
aS'train/ILSVRC2015_VID_train_0003/ILSVRC2015_train_00797001/'
p2000
aS'train/ILSVRC2015_VID_train_0003/ILSVRC2015_train_00900001/'
p2001
aS'train/ILSVRC2015_VID_train_0003/ILSVRC2015_train_00950000/'
p2002
aS'train/ILSVRC2015_VID_train_0003/ILSVRC2015_train_00771000/'
p2003
aS'train/ILSVRC2015_VID_train_0003/ILSVRC2015_train_01099002/'
p2004
aS'train/ILSVRC2015_VID_train_0003/ILSVRC2015_train_00893001/'
p2005
aS'train/ILSVRC2015_VID_train_0003/ILSVRC2015_train_00861000/'
p2006
aS'train/ILSVRC2015_VID_train_0003/ILSVRC2015_train_00989000/'
p2007
aS'train/ILSVRC2015_VID_train_0003/ILSVRC2015_train_00841000/'
p2008
aS'train/ILSVRC2015_VID_train_0003/ILSVRC2015_train_00958000/'
p2009
aS'train/ILSVRC2015_VID_train_0003/ILSVRC2015_train_01048004/'
p2010
aS'train/ILSVRC2015_VID_train_0003/ILSVRC2015_train_00085003/'
p2011
aS'train/ILSVRC2015_VID_train_0003/ILSVRC2015_train_01081001/'
p2012
aS'train/ILSVRC2015_VID_train_0003/ILSVRC2015_train_00798000/'
p2013
aS'train/ILSVRC2015_VID_train_0003/ILSVRC2015_train_00981000/'
p2014
aS'train/ILSVRC2015_VID_train_0003/ILSVRC2015_train_00939001/'
p2015
aS'train/ILSVRC2015_VID_train_0003/ILSVRC2015_train_00875001/'
p2016
aS'train/ILSVRC2015_VID_train_0003/ILSVRC2015_train_01037000/'
p2017
aS'train/ILSVRC2015_VID_train_0003/ILSVRC2015_train_00925001/'
p2018
aS'train/ILSVRC2015_VID_train_0003/ILSVRC2015_train_01113000/'
p2019
aS'train/ILSVRC2015_VID_train_0003/ILSVRC2015_train_01128000/'
p2020
aS'train/ILSVRC2015_VID_train_0003/ILSVRC2015_train_01017003/'
p2021
aS'train/ILSVRC2015_VID_train_0003/ILSVRC2015_train_00797006/'
p2022
aS'train/ILSVRC2015_VID_train_0003/ILSVRC2015_train_00237003/'
p2023
aS'train/ILSVRC2015_VID_train_0003/ILSVRC2015_train_00846000/'
p2024
aS'train/ILSVRC2015_VID_train_0003/ILSVRC2015_train_00774000/'
p2025
aS'train/ILSVRC2015_VID_train_0003/ILSVRC2015_train_00788003/'
p2026
aS'train/ILSVRC2015_VID_train_0003/ILSVRC2015_train_00897002/'
p2027
aS'train/ILSVRC2015_VID_train_0003/ILSVRC2015_train_01048003/'
p2028
aS'train/ILSVRC2015_VID_train_0003/ILSVRC2015_train_00848000/'
p2029
aS'train/ILSVRC2015_VID_train_0003/ILSVRC2015_train_00857001/'
p2030
aS'val/ILSVRC2015_val_00048001/'
p2031
aS'val/ILSVRC2015_val_00097000/'
p2032
aS'val/ILSVRC2015_val_00063000/'
p2033
aS'val/ILSVRC2015_val_00044024/'
p2034
aS'val/ILSVRC2015_val_00119000/'
p2035
aS'val/ILSVRC2015_val_00159000/'
p2036
aS'val/ILSVRC2015_val_00063001/'
p2037
aS'val/ILSVRC2015_val_00007022/'
p2038
aS'val/ILSVRC2015_val_00035008/'
p2039
aS'val/ILSVRC2015_val_00007038/'
p2040
aS'val/ILSVRC2015_val_00098000/'
p2041
aS'val/ILSVRC2015_val_00042005/'
p2042
aS'val/ILSVRC2015_val_00090000/'
p2043
aS'val/ILSVRC2015_val_00077000/'
p2044
aS'val/ILSVRC2015_val_00044025/'
p2045
aS'val/ILSVRC2015_val_00104000/'
p2046
aS'val/ILSVRC2015_val_00053001/'
p2047
aS'val/ILSVRC2015_val_00048006/'
p2048
aS'val/ILSVRC2015_val_00016009/'
p2049
aS'val/ILSVRC2015_val_00023003/'
p2050
aS'val/ILSVRC2015_val_00147000/'
p2051
aS'val/ILSVRC2015_val_00023006/'
p2052
aS'val/ILSVRC2015_val_00099000/'
p2053
aS'val/ILSVRC2015_val_00016004/'
p2054
aS'val/ILSVRC2015_val_00007040/'
p2055
aS'val/ILSVRC2015_val_00132000/'
p2056
aS'val/ILSVRC2015_val_00044008/'
p2057
aS'val/ILSVRC2015_val_00069004/'
p2058
aS'val/ILSVRC2015_val_00069002/'
p2059
aS'val/ILSVRC2015_val_00044001/'
p2060
aS'val/ILSVRC2015_val_00044017/'
p2061
aS'val/ILSVRC2015_val_00042001/'
p2062
aS'val/ILSVRC2015_val_00042000/'
p2063
aS'val/ILSVRC2015_val_00007041/'
p2064
aS'val/ILSVRC2015_val_00039001/'
p2065
aS'val/ILSVRC2015_val_00042015/'
p2066
aS'val/ILSVRC2015_val_00075002/'
p2067
aS'val/ILSVRC2015_val_00044021/'
p2068
aS'val/ILSVRC2015_val_00016011/'
p2069
aS'val/ILSVRC2015_val_00007034/'
p2070
aS'val/ILSVRC2015_val_00143002/'
p2071
aS'val/ILSVRC2015_val_00041005/'
p2072
aS'val/ILSVRC2015_val_00058000/'
p2073
aS'val/ILSVRC2015_val_00093000/'
p2074
aS'val/ILSVRC2015_val_00044010/'
p2075
aS'val/ILSVRC2015_val_00111000/'
p2076
aS'val/ILSVRC2015_val_00148000/'
p2077
aS'val/ILSVRC2015_val_00060000/'
p2078
aS'val/ILSVRC2015_val_00007036/'
p2079
aS'val/ILSVRC2015_val_00119001/'
p2080
aS'val/ILSVRC2015_val_00007002/'
p2081
aS'val/ILSVRC2015_val_00007015/'
p2082
aS'val/ILSVRC2015_val_00007009/'
p2083
aS'val/ILSVRC2015_val_00146000/'
p2084
aS'val/ILSVRC2015_val_00092000/'
p2085
aS'val/ILSVRC2015_val_00007030/'
p2086
aS'val/ILSVRC2015_val_00035005/'
p2087
aS'val/ILSVRC2015_val_00023007/'
p2088
aS'val/ILSVRC2015_val_00099002/'
p2089
aS'val/ILSVRC2015_val_00035003/'
p2090
aS'val/ILSVRC2015_val_00163000/'
p2091
aS'val/ILSVRC2015_val_00035016/'
p2092
aS'val/ILSVRC2015_val_00056001/'
p2093
aS'val/ILSVRC2015_val_00007014/'
p2094
aS'val/ILSVRC2015_val_00126000/'
p2095
aS'val/ILSVRC2015_val_00035006/'
p2096
aS'val/ILSVRC2015_val_00091001/'
p2097
aS'val/ILSVRC2015_val_00159001/'
p2098
aS'val/ILSVRC2015_val_00075001/'
p2099
aS'val/ILSVRC2015_val_00152000/'
p2100
aS'val/ILSVRC2015_val_00081000/'
p2101
aS'val/ILSVRC2015_val_00082001/'
p2102
aS'val/ILSVRC2015_val_00016002/'
p2103
aS'val/ILSVRC2015_val_00007024/'
p2104
aS'val/ILSVRC2015_val_00042018/'
p2105
aS'val/ILSVRC2015_val_00048002/'
p2106
aS'val/ILSVRC2015_val_00035013/'
p2107
aS'val/ILSVRC2015_val_00082000/'
p2108
aS'val/ILSVRC2015_val_00044011/'
p2109
aS'val/ILSVRC2015_val_00035011/'
p2110
aS'val/ILSVRC2015_val_00016000/'
p2111
aS'val/ILSVRC2015_val_00007013/'
p2112
aS'val/ILSVRC2015_val_00122000/'
p2113
aS'val/ILSVRC2015_val_00007044/'
p2114
aS'val/ILSVRC2015_val_00035000/'
p2115
aS'val/ILSVRC2015_val_00044004/'
p2116
aS'val/ILSVRC2015_val_00141000/'
p2117
aS'val/ILSVRC2015_val_00053002/'
p2118
aS'val/ILSVRC2015_val_00103001/'
p2119
aS'val/ILSVRC2015_val_00007032/'
p2120
aS'val/ILSVRC2015_val_00011004/'
p2121
aS'val/ILSVRC2015_val_00035002/'
p2122
aS'val/ILSVRC2015_val_00007008/'
p2123
aS'val/ILSVRC2015_val_00042019/'
p2124
aS'val/ILSVRC2015_val_00044006/'
p2125
aS'val/ILSVRC2015_val_00039005/'
p2126
aS'val/ILSVRC2015_val_00144000/'
p2127
aS'val/ILSVRC2015_val_00007006/'
p2128
aS'val/ILSVRC2015_val_00084000/'
p2129
aS'val/ILSVRC2015_val_00044012/'
p2130
aS'val/ILSVRC2015_val_00105000/'
p2131
aS'val/ILSVRC2015_val_00007005/'
p2132
aS'val/ILSVRC2015_val_00011005/'
p2133
aS'val/ILSVRC2015_val_00016007/'
p2134
aS'val/ILSVRC2015_val_00007019/'
p2135
aS'val/ILSVRC2015_val_00042004/'
p2136
aS'val/ILSVRC2015_val_00042013/'
p2137
aS'val/ILSVRC2015_val_00103000/'
p2138
aS'val/ILSVRC2015_val_00091000/'
p2139
aS'val/ILSVRC2015_val_00109000/'
p2140
aS'val/ILSVRC2015_val_00007027/'
p2141
aS'val/ILSVRC2015_val_00023004/'
p2142
aS'val/ILSVRC2015_val_00039003/'
p2143
aS'val/ILSVRC2015_val_00027000/'
p2144
aS'val/ILSVRC2015_val_00041010/'
p2145
aS'val/ILSVRC2015_val_00023001/'
p2146
aS'val/ILSVRC2015_val_00112000/'
p2147
aS'val/ILSVRC2015_val_00151000/'
p2148
aS'val/ILSVRC2015_val_00174000/'
p2149
aS'val/ILSVRC2015_val_00007025/'
p2150
aS'val/ILSVRC2015_val_00158000/'
p2151
aS'val/ILSVRC2015_val_00023000/'
p2152
aS'val/ILSVRC2015_val_00044014/'
p2153
aS'val/ILSVRC2015_val_00011001/'
p2154
aS'val/ILSVRC2015_val_00003001/'
p2155
aS'val/ILSVRC2015_val_00007023/'
p2156
aS'val/ILSVRC2015_val_00044003/'
p2157
aS'val/ILSVRC2015_val_00081001/'
p2158
aS'val/ILSVRC2015_val_00138000/'
p2159
aS'val/ILSVRC2015_val_00007020/'
p2160
aS'val/ILSVRC2015_val_00116000/'
p2161
aS'val/ILSVRC2015_val_00039004/'
p2162
aS'val/ILSVRC2015_val_00168000/'
p2163
aS'val/ILSVRC2015_val_00061000/'
p2164
aS'val/ILSVRC2015_val_00125000/'
p2165
aS'val/ILSVRC2015_val_00169000/'
p2166
aS'val/ILSVRC2015_val_00042016/'
p2167
aS'val/ILSVRC2015_val_00159002/'
p2168
aS'val/ILSVRC2015_val_00050000/'
p2169
aS'val/ILSVRC2015_val_00044020/'
p2170
aS'val/ILSVRC2015_val_00007033/'
p2171
aS'val/ILSVRC2015_val_00007039/'
p2172
aS'val/ILSVRC2015_val_00042014/'
p2173
aS'val/ILSVRC2015_val_00041007/'
p2174
aS'val/ILSVRC2015_val_00007045/'
p2175
aS'val/ILSVRC2015_val_00101000/'
p2176
aS'val/ILSVRC2015_val_00011008/'
p2177
aS'val/ILSVRC2015_val_00124000/'
p2178
aS'val/ILSVRC2015_val_00106000/'
p2179
aS'val/ILSVRC2015_val_00007018/'
p2180
aS'val/ILSVRC2015_val_00047000/'
p2181
aS'val/ILSVRC2015_val_00069005/'
p2182
aS'val/ILSVRC2015_val_00007011/'
p2183
aS'val/ILSVRC2015_val_00063002/'
p2184
aS'val/ILSVRC2015_val_00042009/'
p2185
aS'val/ILSVRC2015_val_00139001/'
p2186
aS'val/ILSVRC2015_val_00023002/'
p2187
aS'val/ILSVRC2015_val_00048008/'
p2188
aS'val/ILSVRC2015_val_00011003/'
p2189
aS'val/ILSVRC2015_val_00042002/'
p2190
aS'val/ILSVRC2015_val_00143004/'
p2191
aS'val/ILSVRC2015_val_00048000/'
p2192
aS'val/ILSVRC2015_val_00121000/'
p2193
aS'val/ILSVRC2015_val_00007028/'
p2194
aS'val/ILSVRC2015_val_00139000/'
p2195
aS'val/ILSVRC2015_val_00007042/'
p2196
aS'val/ILSVRC2015_val_00056000/'
p2197
aS'val/ILSVRC2015_val_00044009/'
p2198
aS'val/ILSVRC2015_val_00048007/'
p2199
aS'val/ILSVRC2015_val_00007010/'
p2200
aS'val/ILSVRC2015_val_00068000/'
p2201
aS'val/ILSVRC2015_val_00143001/'
p2202
aS'val/ILSVRC2015_val_00140000/'
p2203
aS'val/ILSVRC2015_val_00146002/'
p2204
aS'val/ILSVRC2015_val_00044000/'
p2205
aS'val/ILSVRC2015_val_00085000/'
p2206
aS'val/ILSVRC2015_val_00041002/'
p2207
aS'val/ILSVRC2015_val_00042012/'
p2208
aS'val/ILSVRC2015_val_00072000/'
p2209
aS'val/ILSVRC2015_val_00107000/'
p2210
aS'val/ILSVRC2015_val_00143000/'
p2211
aS'val/ILSVRC2015_val_00069001/'
p2212
aS'val/ILSVRC2015_val_00007003/'
p2213
aS'val/ILSVRC2015_val_00110000/'
p2214
aS'val/ILSVRC2015_val_00070000/'
p2215
aS'val/ILSVRC2015_val_00035009/'
p2216
aS'val/ILSVRC2015_val_00053000/'
p2217
aS'val/ILSVRC2015_val_00060001/'
p2218
aS'val/ILSVRC2015_val_00044022/'
p2219
aS'val/ILSVRC2015_val_00007029/'
p2220
aS'val/ILSVRC2015_val_00099001/'
p2221
aS'val/ILSVRC2015_val_00048003/'
p2222
aS'val/ILSVRC2015_val_00042017/'
p2223
aS'val/ILSVRC2015_val_00016001/'
p2224
aS'val/ILSVRC2015_val_00023013/'
p2225
aS'val/ILSVRC2015_val_00136000/'
p2226
aS'val/ILSVRC2015_val_00042008/'
p2227
aS'val/ILSVRC2015_val_00039000/'
p2228
aS'val/ILSVRC2015_val_00071000/'
p2229
aS'val/ILSVRC2015_val_00042011/'
p2230
aS'val/ILSVRC2015_val_00171000/'
p2231
aS'val/ILSVRC2015_val_00155000/'
p2232
aS'val/ILSVRC2015_val_00016003/'
p2233
aS'val/ILSVRC2015_val_00016010/'
p2234
aS'val/ILSVRC2015_val_00007043/'
p2235
aS'val/ILSVRC2015_val_00023010/'
p2236
aS'val/ILSVRC2015_val_00007021/'
p2237
aS'val/ILSVRC2015_val_00007004/'
p2238
aS'val/ILSVRC2015_val_00041006/'
p2239
aS'val/ILSVRC2015_val_00011007/'
p2240
aS'val/ILSVRC2015_val_00049000/'
p2241
aS'val/ILSVRC2015_val_00075000/'
p2242
aS'val/ILSVRC2015_val_00065000/'
p2243
aS'val/ILSVRC2015_val_00048005/'
p2244
aS'val/ILSVRC2015_val_00042010/'
p2245
aS'val/ILSVRC2015_val_00087000/'
p2246
aS'val/ILSVRC2015_val_00007000/'
p2247
aS'val/ILSVRC2015_val_00067000/'
p2248
aS'val/ILSVRC2015_val_00035001/'
p2249
aS'val/ILSVRC2015_val_00142000/'
p2250
aS'val/ILSVRC2015_val_00011009/'
p2251
aS'val/ILSVRC2015_val_00124002/'
p2252
aS'val/ILSVRC2015_val_00011006/'
p2253
aS'val/ILSVRC2015_val_00007026/'
p2254
aS'val/ILSVRC2015_val_00041008/'
p2255
aS'val/ILSVRC2015_val_00051001/'
p2256
aS'val/ILSVRC2015_val_00059000/'
p2257
aS'val/ILSVRC2015_val_00117000/'
p2258
aS'val/ILSVRC2015_val_00044015/'
p2259
aS'val/ILSVRC2015_val_00153000/'
p2260
aS'val/ILSVRC2015_val_00054000/'
p2261
aS'val/ILSVRC2015_val_00007017/'
p2262
aS'val/ILSVRC2015_val_00044007/'
p2263
aS'val/ILSVRC2015_val_00055000/'
p2264
aS'val/ILSVRC2015_val_00044023/'
p2265
aS'val/ILSVRC2015_val_00016013/'
p2266
aS'val/ILSVRC2015_val_00039002/'
p2267
aS'val/ILSVRC2015_val_00023011/'
p2268
aS'val/ILSVRC2015_val_00042007/'
p2269
aS'val/ILSVRC2015_val_00051000/'
p2270
aS'val/ILSVRC2015_val_00007016/'
p2271
aS'val/ILSVRC2015_val_00102000/'
p2272
aS'val/ILSVRC2015_val_00056002/'
p2273
aS'val/ILSVRC2015_val_00069000/'
p2274
aS'val/ILSVRC2015_val_00016012/'
p2275
aS'val/ILSVRC2015_val_00124001/'
p2276
aS'val/ILSVRC2015_val_00016006/'
p2277
aS'val/ILSVRC2015_val_00041011/'
p2278
aS'val/ILSVRC2015_val_00035004/'
p2279
aS'val/ILSVRC2015_val_00044005/'
p2280
aS'val/ILSVRC2015_val_00042003/'
p2281
aS'val/ILSVRC2015_val_00023009/'
p2282
aS'val/ILSVRC2015_val_00041004/'
p2283
aS'val/ILSVRC2015_val_00044016/'
p2284
aS'val/ILSVRC2015_val_00041013/'
p2285
aS'val/ILSVRC2015_val_00072001/'
p2286
aS'val/ILSVRC2015_val_00137000/'
p2287
aS'val/ILSVRC2015_val_00143003/'
p2288
aS'val/ILSVRC2015_val_00035010/'
p2289
aS'val/ILSVRC2015_val_00023005/'
p2290
aS'val/ILSVRC2015_val_00044019/'
p2291
aS'val/ILSVRC2015_val_00035007/'
p2292
aS'val/ILSVRC2015_val_00042006/'
p2293
aS'val/ILSVRC2015_val_00044013/'
p2294
aS'val/ILSVRC2015_val_00041012/'
p2295
aS'val/ILSVRC2015_val_00011000/'
p2296
aS'val/ILSVRC2015_val_00035015/'
p2297
aS'val/ILSVRC2015_val_00023012/'
p2298
aS'val/ILSVRC2015_val_00035012/'
p2299
aS'val/ILSVRC2015_val_00035014/'
p2300
aS'val/ILSVRC2015_val_00044018/'
p2301
aS'val/ILSVRC2015_val_00068001/'
p2302
aS'val/ILSVRC2015_val_00167000/'
p2303
aS'val/ILSVRC2015_val_00007031/'
p2304
aS'val/ILSVRC2015_val_00106001/'
p2305
aS'val/ILSVRC2015_val_00007001/'
p2306
aS'val/ILSVRC2015_val_00062000/'
p2307
aS'val/ILSVRC2015_val_00041009/'
p2308
aS'val/ILSVRC2015_val_00069003/'
p2309
aS'val/ILSVRC2015_val_00153001/'
p2310
aS'val/ILSVRC2015_val_00023008/'
p2311
aS'val/ILSVRC2015_val_00011002/'
p2312
aS'val/ILSVRC2015_val_00066000/'
p2313
aS'val/ILSVRC2015_val_00048004/'
p2314
aS'val/ILSVRC2015_val_00016005/'
p2315
aS'val/ILSVRC2015_val_00151001/'
p2316
aS'val/ILSVRC2015_val_00016008/'
p2317
aS'val/ILSVRC2015_val_00074000/'
p2318
aS'val/ILSVRC2015_val_00041003/'
p2319
aS'val/ILSVRC2015_val_00175000/'
p2320
aS'val/ILSVRC2015_val_00041001/'
p2321
aS'val/ILSVRC2015_val_00146001/'
p2322
aS'val/ILSVRC2015_val_00114000/'
p2323
aS'val/ILSVRC2015_val_00041000/'
p2324
aS'val/ILSVRC2015_val_00079000/'
p2325
aS'val/ILSVRC2015_val_00007035/'
p2326
aS'val/ILSVRC2015_val_00007012/'
p2327
aS'val/ILSVRC2015_val_00007037/'
p2328
aS'val/ILSVRC2015_val_00044002/'
p2329
aS'val/ILSVRC2015_val_00007007/'
p2330
a.